Base: 0x614840a000    Name: app_process64
    Address: 0x614840f8b0    Name: EnsureFrontOfChain
    Address: 0x614840f7a8    Name: RemoveSpecialSignalHandlerFn
    Address: 0x614840efc8    Name: sigaction
    Address: 0x614840f13c    Name: sigaction64
    Address: 0x614840f3d8    Name: sigprocmask
    Address: 0x614840f5a4    Name: sigprocmask64
    Address: 0x614840f648    Name: AddSpecialSignalHandlerFn
    Address: 0x614840f270    Name: signal

Base: 0x7208c24000    Name: libappfuse.so
    Address: 0x7208c290b8    Name: _ZN7android4fuse11FuseAppLoop5BreakEv
    Address: 0x7208c29014    Name: _ZN7android4fuse19FuseAppLoopCallbackD1Ev
    Address: 0x7208c2b23c    Name: _ZNK7android4fuse11FuseMessageINS0_16FuseResponseBaseILm0EEEE12WriteOrAgainEi
    Address: 0x7208c2d9b4    Name: _ZNSt3__112__hash_tableIPN7android4fuse15FuseBridgeEntryENS_4hashIS4_EENS_8equal_toIS4_EENS_9allocatorIS4_EEE25__emplace_unique_key_argsIS4_JRKS4_EEENS_4pairINS_15__hash_iteratorIPNS_11__hash_nodeIS4_PvEEEEbEERKT_DpOT0_
    Address: 0x7208c29390    Name: _ZN7android4fuse11FuseAppLoop9ReplyOpenEmm
    Address: 0x7208c29014    Name: _ZN7android4fuse19FuseAppLoopCallbackD2Ev
    Address: 0x7208c2b134    Name: _ZNK7android4fuse11FuseMessageINS0_16FuseResponseBaseILm0EEEE5WriteEi
    Address: 0x7208c2e0c8    Name: _ZNSt3__16__treeINS_12__value_typeIiNS_10unique_ptrIN7android4fuse15FuseBridgeEntryENS_14default_deleteIS5_EEEEEENS_19__map_value_compareIiS9_NS_4lessIiEELb1EEENS_9allocatorIS9_EEE5eraseENS_21__tree_const_iteratorIS9_PNS_11__tree_nodeIS9_PvEElEE
    Address: 0x7208c2e864    Name: _ZNK7android4fuse15EpollController6eventsEv
    Address: 0x7208c2c9d4    Name: _ZN7android4fuse14FuseBridgeLoop5StartEPNS0_22FuseBridgeLoopCallbackE
    Address: 0x7208c2901c    Name: _ZN7android4fuse11FuseAppLoopC1EONS_4base14unique_fd_implINS2_13DefaultCloserEEE
    Address: 0x7208c2a750    Name: _ZN7android4fuse11FuseMessageINS0_11FuseRequestEE11ReadOrAgainEi
    Address: 0x7208c2ae6c    Name: _ZN7android4fuse11FuseMessageINS0_16FuseResponseBaseILm131072EEEE11ReadOrAgainEi
    Address: 0x7208c2e758    Name: _ZNK7android4fuse15EpollController13InvokeControlEiiiPv
    Address: 0x7208c2cd2c    Name: _ZNSt3__16__treeINS_12__value_typeIiNS_10unique_ptrIN7android4fuse15FuseBridgeEntryENS_14default_deleteIS5_EEEEEENS_19__map_value_compareIiS9_NS_4lessIiEELb1EEENS_9allocatorIS9_EEE7destroyEPNS_11__tree_nodeIS9_PvEE
    Address: 0x7208c2e83c    Name: _ZN7android4fuse15EpollController8UpdateFdEiiPv
    Address: 0x7208c2901c    Name: _ZN7android4fuse11FuseAppLoopC2EONS_4base14unique_fd_implINS2_13DefaultCloserEEE
    Address: 0x7208c2a050    Name: _ZN7android4fuse11FuseMessageINS0_11FuseRequestEE4ReadEi
    Address: 0x7208c2a76c    Name: _ZN7android4fuse11FuseMessageINS0_16FuseResponseBaseILm131072EEEE4ReadEi
    Address: 0x7208c2e180    Name: _ZNSt3__113__tree_removeIPNS_16__tree_node_baseIPvEEEEvT_S5_
    Address: 0x7208c2b8b8    Name: _ZN7android4fuse10FuseBuffer10HandleInitEv
    Address: 0x7208c2b234    Name: _ZN7android4fuse11FuseMessageINS0_16FuseResponseBaseILm0EEEE11ReadOrAgainEi
    Address: 0x7208c2e744    Name: _ZN7android4fuse15EpollController5AddFdEiiPv
    Address: 0x7208c2ae88    Name: _ZN7android4fuse11FuseMessageINS0_16FuseResponseBaseILm0EEEE4ReadEi
    Address: 0x7208c2b41c    Name: _ZN7android4fuse16FuseResponseBaseILm131072EE5ResetEjim
    Address: 0x7208c2a678    Name: _ZNK7android4fuse11FuseMessageINS0_11FuseRequestEE13WriteWithBodyEimPKv
    Address: 0x7208c2ad94    Name: _ZNK7android4fuse11FuseMessageINS0_16FuseResponseBaseILm131072EEEE13WriteWithBodyEimPKv
    Address: 0x7208c2df2c    Name: _ZNSt3__127__tree_balance_after_insertIPNS_16__tree_node_baseIPvEEEEvT_S5_
    Address: 0x7208c2ba30    Name: _ZN7android4fuse10FuseBuffer13HandleNotImplEv
    Address: 0x7208c2b870    Name: _ZN7android4fuse11FuseRequest5ResetEjjm
    Address: 0x7208c2b24c    Name: _ZN7android4fuse16FuseResponseBaseILm0EE5ResetEjim
    Address: 0x7208c2b15c    Name: _ZNK7android4fuse11FuseMessageINS0_16FuseResponseBaseILm0EEEE13WriteWithBodyEimPKv
    Address: 0x7208c2928c    Name: _ZN7android4fuse11FuseAppLoop12ReplyGetAttrEmmli
    Address: 0x7208c294e4    Name: _ZN7android4fuse11FuseAppLoop9ReplyReadEmjPKv
    Address: 0x7208c2e554    Name: _ZN7android4fuse15EpollControllerC1EONS_4base14unique_fd_implINS2_13DefaultCloserEEE
    Address: 0x7208c2bd5c    Name: _ZN7android4fuse14FuseBridgeLoopC1Ev
    Address: 0x7208c2d55c    Name: _ZNSt3__112__hash_tableINS_17__hash_value_typeImjEENS_22__unordered_map_hasherImS2_NS_4hashImEELb1EEENS_21__unordered_map_equalImS2_NS_8equal_toImEELb1EEENS_9allocatorIS2_EEE25__emplace_unique_key_argsImJRmRKjEEENS_4pairINS_15__hash_iteratorIPNS_11__hash_nodeIS2_PvEEEEbEERKT_DpOT0_
    Address: 0x7208c29c38    Name: _ZNSt3__124__put_character_sequenceIcNS_11char_traitsIcEEEERNS_13basic_ostreamIT_T0_EES7_PKS4_m
    Address: 0x7208c2bd5c    Name: _ZN7android4fuse14FuseBridgeLoopC2Ev
    Address: 0x7208c2bed8    Name: _ZN7android4fuse14FuseBridgeLoopD1Ev
    Address: 0x7208c2e554    Name: _ZN7android4fuse15EpollControllerC2EONS_4base14unique_fd_implINS2_13DefaultCloserEEE
    Address: 0x7208c2bed8    Name: _ZN7android4fuse14FuseBridgeLoopD2Ev
    Address: 0x7208c2dbd8    Name: _ZNSt3__112__hash_tableIPN7android4fuse15FuseBridgeEntryENS_4hashIS4_EENS_8equal_toIS4_EENS_9allocatorIS4_EEE6rehashEm
    Address: 0x7208c2dcbc    Name: _ZNSt3__112__hash_tableIPN7android4fuse15FuseBridgeEntryENS_4hashIS4_EENS_8equal_toIS4_EENS_9allocatorIS4_EEE8__rehashEm
    Address: 0x7208c2e86c    Name: _ZNSt3__16vectorI11epoll_eventNS_9allocatorIS1_EEE8__appendEm
    Address: 0x7208c2e5e4    Name: _ZN7android4fuse15EpollController4WaitEm
    Address: 0x7208c2b46c    Name: _ZN7android4fuse16FuseResponseBaseILm131072EE11ResetHeaderEjim
    Address: 0x7208c2d75c    Name: _ZNSt3__112__hash_tableINS_17__hash_value_typeImjEENS_22__unordered_map_hasherImS2_NS_4hashImEELb1EEENS_21__unordered_map_equalImS2_NS_8equal_toImEELb1EEENS_9allocatorIS2_EEE6rehashEm
    Address: 0x7208c2d840    Name: _ZNSt3__112__hash_tableINS_17__hash_value_typeImjEENS_22__unordered_map_hasherImS2_NS_4hashImEELb1EEENS_21__unordered_map_equalImS2_NS_8equal_toImEELb1EEENS_9allocatorIS2_EEE8__rehashEm
    Address: 0x7208c295d4    Name: _ZN7android4fuse11FuseAppLoop5StartEPNS0_19FuseAppLoopCallbackE
    Address: 0x7208c2b5ec    Name: _ZN7android4fuse19SetupMessageSocketsEPA2_NS_4base14unique_fd_implINS1_13DefaultCloserEEE
    Address: 0x7208c291f8    Name: _ZN7android4fuse11FuseAppLoop11ReplyLookupEmml
    Address: 0x7208c29188    Name: _ZN7android4fuse11FuseAppLoop11ReplySimpleEmi
    Address: 0x7208c2b29c    Name: _ZN7android4fuse16FuseResponseBaseILm0EE11ResetHeaderEjim
    Address: 0x7208c2a758    Name: _ZNK7android4fuse11FuseMessageINS0_11FuseRequestEE12WriteOrAgainEi
    Address: 0x7208c2ae74    Name: _ZNK7android4fuse11FuseMessageINS0_16FuseResponseBaseILm131072EEEE12WriteOrAgainEi
    Address: 0x7208c2c3f8    Name: _ZN7android4fuse14FuseBridgeLoop18ProcessEventLockedERKNSt3__113unordered_setIPNS0_15FuseBridgeEntryENS2_4hashIS5_EENS2_8equal_toIS5_EENS2_9allocatorIS5_EEEEPNS0_22FuseBridgeLoopCallbackE
    Address: 0x7208c2bfa4    Name: _ZN7android4fuse14FuseBridgeLoop9AddBridgeEiNS_4base14unique_fd_implINS2_13DefaultCloserEEES5_
    Address: 0x7208c29408    Name: _ZN7android4fuse11FuseAppLoop10ReplyWriteEmj
    Address: 0x7208c29018    Name: _ZN7android4fuse19FuseAppLoopCallbackD0Ev
    Address: 0x7208c2aa24    Name: _ZNK7android4fuse11FuseMessageINS0_16FuseResponseBaseILm131072EEEE5WriteEi
    Address: 0x7208c30010    Name: _ZTVN7android4fuse19FuseAppLoopCallbackE
    Address: 0x7208c2a308    Name: _ZNK7android4fuse11FuseMessageINS0_11FuseRequestEE5WriteEi
    Address: 0x7208c2d440    Name: _ZNSt3__112__hash_tableINS_17__hash_value_typeImjEENS_22__unordered_map_hasherImS2_NS_4hashImEELb1EEENS_21__unordered_map_equalImS2_NS_8equal_toImEELb1EEENS_9allocatorIS2_EEE6removeENS_21__hash_const_iteratorIPNS_11__hash_nodeIS2_PvEEEE
    Address: 0x7208c2e850    Name: _ZN7android4fuse15EpollController8RemoveFdEi

Base: 0x7209595000    Name: android.hardware.graphics.mapper@2.0.so
    Address: 0x72095a007c    Name: _ZN7android8hardware8graphics6mapper4V2_010BpHwMapperC1ERKNS_2spINS0_7IBinderEEE
    Address: 0x720959fa78    Name: _ZN7android8hardware8graphics6mapper4V2_07IMapper4pingEv
    Address: 0x72095a9a70    Name: _ZTCN7android8hardware8graphics6mapper4V2_010BpHwMapperE8_NS0_10IInterfaceE
    Address: 0x72095a16c4    Name: _ZN7android8hardware8graphics6mapper4V2_010BpHwMapper4pingEv
    Address: 0x72095a349c    Name: _ZN7android8hardware8graphics6mapper4V2_07IMapper10getServiceERKNSt3__112basic_stringIcNS5_11char_traitsIcEENS5_9allocatorIcEEEEb
    Address: 0x720959fb0c    Name: _ZN7android8hardware8graphics6mapper4V2_07IMapper21notifySyspropsChangedEv
    Address: 0x72095a9870    Name: _ZTCN7android8hardware8graphics6mapper4V2_010BpHwMapperE0_NS3_7IMapperE
    Address: 0x720959f800    Name: _ZN7android8hardware8graphics6mapper4V2_07IMapper5debugERKNS0_11hidl_handleERKNS0_8hidl_vecINS0_11hidl_stringEEE
    Address: 0x72095a292c    Name: _ZN7android8hardware8graphics6mapper4V2_010BnHwMapper12_hidl_unlockEPNS_4hidl4base4V1_08BnHwBaseERKNS0_6ParcelEPSA_NSt3__18functionIFvRSA_EEE
    Address: 0x72095a2984    Name: _ZN7android8hardware8graphics6mapper4V2_010BnHwMapper12getDebugInfoENSt3__18functionIFvRKNS_4hidl4base4V1_09DebugInfoEEEE
    Address: 0x72095a115c    Name: _ZN7android8hardware8graphics6mapper4V2_010BpHwMapper6unlockEPvNSt3__18functionIFvNS3_5ErrorERKNS0_11hidl_handleEEEE
    Address: 0x72095a2344    Name: _ZTv0_n24_N7android8hardware8graphics6mapper4V2_010BnHwMapperD1Ev
    Address: 0x72095a2974    Name: _ZN7android8hardware8graphics6mapper4V2_010BnHwMapper4pingEv
    Address: 0x72095a1d54    Name: _ZN7android8hardware8graphics6mapper4V2_010BnHwMapperC1ERKNS_2spINS3_7IMapperEEE
    Address: 0x72095a0fc8    Name: _ZN7android8hardware8graphics6mapper4V2_010BpHwMapper10freeBufferEPv
    Address: 0x72095a1404    Name: _ZN7android8hardware8graphics6mapper4V2_010BpHwMapper12getHashChainENSt3__18functionIFvRKNS0_8hidl_vecINS0_10hidl_arrayIhLm32EJEEEEEEEE
    Address: 0x72095a0ad8    Name: _ZN7android8hardware8graphics6mapper4V2_010BpHwMapper15_hidl_lockYCbCrEPNS0_10IInterfaceEPNS0_7details16HidlInstrumentorEPvmRKNS3_7IMapper4RectERKNS0_11hidl_handleENSt3__18functionIFvNS3_5ErrorERKNS3_11YCbCrLayoutEEEE
    Address: 0x720959f6e4    Name: _ZN7android8hardware8graphics6mapper4V2_07IMapper14interfaceChainENSt3__18functionIFvRKNS0_8hidl_vecINS0_11hidl_stringEEEEEE
    Address: 0x72095a3014    Name: _ZN7android8hardware8graphics6mapper4V2_08BsMapperC1ENS_2spINS3_7IMapperEEE
    Address: 0x72095a5670    Name: _ZNSt3__16__treeINS_12__value_typeINS_12basic_stringIcNS_11char_traitsIcEENS_9allocatorIcEEEENS_8functionIFN7android2spINS9_4hidl4base4V1_05IBaseEEEPvEEEEENS_19__map_value_compareIS7_SJ_NS_4lessIS7_EELb1EEENS5_ISJ_EEE12__find_equalIS7_EERPNS_16__tree_node_baseISG_EERPNS_15__tree_end_nodeIST_EERKT_
    Address: 0x720959fcbc    Name: _ZN7android8hardware7details13castInterfaceINS0_8graphics6mapper4V2_07IMapperENS_4hidl4base4V1_05IBaseENS5_10BpHwMapperEEENS0_6ReturnINS_2spIT_EEEENSD_IT0_EEPKcb
    Address: 0x72095a2600    Name: _ZN7android8hardware8graphics6mapper4V2_010BnHwMapper18_hidl_importBufferEPNS_4hidl4base4V1_08BnHwBaseERKNS0_6ParcelEPSA_NSt3__18functionIFvRSA_EEE
    Address: 0x72095a094c    Name: _ZN7android8hardware8graphics6mapper4V2_010BpHwMapper10_hidl_lockEPNS0_10IInterfaceEPNS0_7details16HidlInstrumentorEPvmRKNS3_7IMapper4RectERKNS0_11hidl_handleENSt3__18functionIFvNS3_5ErrorESA_EEE
    Address: 0x720959fa88    Name: _ZN7android8hardware8graphics6mapper4V2_07IMapper12getDebugInfoENSt3__18functionIFvRKNS_4hidl4base4V1_09DebugInfoEEEE
    Address: 0x72095a598c    Name: _ZNSt3__16__treeINS_12__value_typeINS_12basic_stringIcNS_11char_traitsIcEENS_9allocatorIcEEEENS_8functionIFN7android2spINS9_8hardware7IBinderEEEPvEEEEENS_19__map_value_compareIS7_SH_NS_4lessIS7_EELb1EEENS5_ISH_EEE5eraseENS_21__tree_const_iteratorISH_PNS_11__tree_nodeISH_SE_EElEE
    Address: 0x72095a3238    Name: _ZN7android8hardware7details18getServiceInternalINS0_8graphics6mapper4V2_010BpHwMapperENS5_7IMapperEvvEENS_2spIT0_EERKNSt3__112basic_stringIcNSB_11char_traitsIcEENSB_9allocatorIcEEEEbb
    Address: 0x72095a20d8    Name: _ZN7android8hardware8graphics6mapper4V2_010BnHwMapperD2Ev
    Address: 0x72095a07d4    Name: _ZN7android8hardware8graphics6mapper4V2_010BpHwMapper16_hidl_freeBufferEPNS0_10IInterfaceEPNS0_7details16HidlInstrumentorEPv
    Address: 0x720959fee0    Name: _ZN7android8hardware8graphics6mapper4V2_010BpHwMapperC2ERKNS_2spINS0_7IBinderEEE
    Address: 0x720959f8a4    Name: _ZN7android8hardware8graphics6mapper4V2_07IMapper12getHashChainENSt3__18functionIFvRKNS0_8hidl_vecINS0_10hidl_arrayIhLm32EJEEEEEEEE
    Address: 0x72095a2a28    Name: _ZN7android8hardware8graphics6mapper4V2_010BnHwMapper10onTransactEjRKNS0_6ParcelEPS5_jNSt3__18functionIFvRS5_EEE
    Address: 0x720959fc18    Name: _ZN7android8hardware8graphics6mapper4V2_07IMapper8castFromERKNS_2spINS_4hidl4base4V1_05IBaseEEEb
    Address: 0x72095a95d8    Name: _ZTTN7android8hardware8graphics6mapper4V2_07IMapperE
    Address: 0x72095a054c    Name: _ZN7android8hardware8graphics6mapper4V2_010BpHwMapper18_hidl_importBufferEPNS0_10IInterfaceEPNS0_7details16HidlInstrumentorERKNS0_11hidl_handleENSt3__18functionIFvNS3_5ErrorEPvEEE
    Address: 0x720959f810    Name: _ZN7android8hardware8graphics6mapper4V2_07IMapper19interfaceDescriptorENSt3__18functionIFvRKNS0_11hidl_stringEEEE
    Address: 0x720959fa48    Name: _ZN7android8hardware8graphics6mapper4V2_07IMapper21setHALInstrumentationEv
    Address: 0x72095a5880    Name: _ZNSt3__16__treeINS_12__value_typeINS_12basic_stringIcNS_11char_traitsIcEENS_9allocatorIcEEEENS_8functionIFN7android2spINS9_8hardware7IBinderEEEPvEEEEENS_19__map_value_compareIS7_SH_NS_4lessIS7_EELb1EEENS5_ISH_EEE4findIS7_EENS_15__tree_iteratorISH_PNS_11__tree_nodeISH_SE_EElEERKT_
    Address: 0x72095a9c90    Name: _ZTCN7android8hardware8graphics6mapper4V2_010BnHwMapperE0_NS0_9BHwBinderE
    Address: 0x72095a9bb0    Name: _ZTCN7android8hardware8graphics6mapper4V2_010BnHwMapperE0_NS_4hidl4base4V1_08BnHwBaseE
    Address: 0x72095a1308    Name: _ZN7android8hardware8graphics6mapper4V2_010BpHwMapper5debugERKNS0_11hidl_handleERKNS0_8hidl_vecINS0_11hidl_stringEEE
    Address: 0x72095a5e30    Name: _ZNSt3__16__treeINS_12__value_typeINS_12basic_stringIcNS_11char_traitsIcEENS_9allocatorIcEEEENS_8functionIFN7android2spINS9_4hidl4base4V1_05IBaseEEEPvEEEEENS_19__map_value_compareIS7_SJ_NS_4lessIS7_EELb1EEENS5_ISJ_EEE4findIS7_EENS_15__tree_iteratorISJ_PNS_11__tree_nodeISJ_SG_EElEERKT_
    Address: 0x72095a282c    Name: _ZN7android8hardware8graphics6mapper4V2_010BnHwMapper10_hidl_lockEPNS_4hidl4base4V1_08BnHwBaseERKNS0_6ParcelEPSA_NSt3__18functionIFvRSA_EEE
    Address: 0x72095a34a8    Name: _ZN7android8hardware8graphics6mapper4V2_07IMapper17registerAsServiceERKNSt3__112basic_stringIcNS5_11char_traitsIcEENS5_9allocatorIcEEEE
    Address: 0x72095a23b0    Name: _ZThn32_N7android8hardware8graphics6mapper4V2_010BnHwMapperD0Ev
    Address: 0x72095a28ac    Name: _ZN7android8hardware8graphics6mapper4V2_010BnHwMapper15_hidl_lockYCbCrEPNS_4hidl4base4V1_08BnHwBaseERKNS0_6ParcelEPSA_NSt3__18functionIFvRSA_EEE
    Address: 0x72095a14f8    Name: _ZN7android8hardware8graphics6mapper4V2_010BpHwMapper11linkToDeathERKNS_2spINS0_20hidl_death_recipientEEEm
    Address: 0x72095a0228    Name: _ZN7android8hardware8graphics6mapper4V2_010BpHwMapper22_hidl_createDescriptorEPNS0_10IInterfaceEPNS0_7details16HidlInstrumentorERKNS3_7IMapper20BufferDescriptorInfoENSt3__18functionIFvNS3_5ErrorERKNS0_8hidl_vecIjEEEEE
    Address: 0x72095a52bc    Name: _ZNSt3__16__treeINS_12__value_typeINS_12basic_stringIcNS_11char_traitsIcEENS_9allocatorIcEEEENS_8functionIFN7android2spINS9_8hardware7IBinderEEEPvEEEEENS_19__map_value_compareIS7_SH_NS_4lessIS7_EELb1EEENS5_ISH_EEE12__find_equalIS7_EERPNS_16__tree_node_baseISE_EERPNS_15__tree_end_nodeISR_EERKT_
    Address: 0x72095a9988    Name: _ZTCN7android8hardware8graphics6mapper4V2_010BpHwMapperE0_NS_4hidl4base4V1_05IBaseE
    Address: 0x72095a69a4    Name: _ZN7android8hardware8graphics6mapper4V2_022readEmbeddedFromParcelERKNS3_11YCbCrLayoutERKNS0_6ParcelEmm
    Address: 0x72095a17c8    Name: _ZN7android8hardware8graphics6mapper4V2_010BpHwMapper13unlinkToDeathERKNS_2spINS0_20hidl_death_recipientEEE
    Address: 0x72095a0e00    Name: _ZN7android8hardware8graphics6mapper4V2_010BpHwMapper16createDescriptorERKNS3_7IMapper20BufferDescriptorInfoENSt3__18functionIFvNS3_5ErrorERKNS0_8hidl_vecIjEEEEE
    Address: 0x72095a14e8    Name: _ZN7android8hardware8graphics6mapper4V2_010BpHwMapper21setHALInstrumentationEv
    Address: 0x72095a9e48    Name: _ZTCN7android8hardware8graphics6mapper4V2_08BsMapperE0_NS3_7IMapperE
    Address: 0x72095a237c    Name: _ZN7android8hardware8graphics6mapper4V2_010BnHwMapperD0Ev
    Address: 0x72095a5f3c    Name: _ZNSt3__16__treeINS_12__value_typeINS_12basic_stringIcNS_11char_traitsIcEENS_9allocatorIcEEEENS_8functionIFN7android2spINS9_4hidl4base4V1_05IBaseEEEPvEEEEENS_19__map_value_compareIS7_SJ_NS_4lessIS7_EELb1EEENS5_ISJ_EEE5eraseENS_21__tree_const_iteratorISJ_PNS_11__tree_nodeISJ_SG_EElEE
    Address: 0x72095a9d70    Name: _ZTCN7android8hardware8graphics6mapper4V2_010BnHwMapperE0_NS0_7IBinderE
    Address: 0x72095a27e4    Name: _ZN7android8hardware8graphics6mapper4V2_010BnHwMapper16_hidl_freeBufferEPNS_4hidl4base4V1_08BnHwBaseERKNS0_6ParcelEPSA_NSt3__18functionIFvRSA_EEE
    Address: 0x72095a16d4    Name: _ZN7android8hardware8graphics6mapper4V2_010BpHwMapper12getDebugInfoENSt3__18functionIFvRKNS_4hidl4base4V1_09DebugInfoEEEE
    Address: 0x72095a3538    Name: _ZN7android8hardware8graphics6mapper4V2_07IMapper24registerForNotificationsERKNSt3__112basic_stringIcNS5_11char_traitsIcEENS5_9allocatorIcEEEERKNS_2spINS_4hidl7manager4V1_020IServiceNotificationEEE
    Address: 0x72095a3178    Name: _ZN7android8hardware8graphics6mapper4V2_08BsMapper13addOnewayTaskENSt3__18functionIFvvEEE
    Address: 0x72095a242c    Name: _ZN7android8hardware8graphics6mapper4V2_010BnHwMapper22_hidl_createDescriptorEPNS_4hidl4base4V1_08BnHwBaseERKNS0_6ParcelEPSA_NSt3__18functionIFvRSA_EEE
    Address: 0x72095a17b8    Name: _ZN7android8hardware8graphics6mapper4V2_010BpHwMapper21notifySyspropsChangedEv
    Address: 0x72095a1094    Name: _ZN7android8hardware8graphics6mapper4V2_010BpHwMapper9lockYCbCrEPvmRKNS3_7IMapper4RectERKNS0_11hidl_handleENSt3__18functionIFvNS3_5ErrorERKNS3_11YCbCrLayoutEEEE
    Address: 0x72095a5a5c    Name: _ZNSt3__113__tree_removeIPNS_16__tree_node_baseIPvEEEEvT_S5_
    Address: 0x72095a91c8    Name: _ZTTN7android8hardware8graphics6mapper4V2_010BpHwMapperE
    Address: 0x72095a94c0    Name: _ZTVN7android8hardware8graphics6mapper4V2_07IMapperE
    Address: 0x72095a9388    Name: _ZTVN7android8hardware8graphics6mapper4V2_08BsMapperE
    Address: 0x72095a2314    Name: _ZThn32_N7android8hardware8graphics6mapper4V2_010BnHwMapperD1Ev
    Address: 0x72095a23ec    Name: _ZTv0_n24_N7android8hardware8graphics6mapper4V2_010BnHwMapperD0Ev
    Address: 0x72095a69c4    Name: _ZN7android8hardware8graphics6mapper4V2_021writeEmbeddedToParcelERKNS3_11YCbCrLayoutEPNS0_6ParcelEmm
    Address: 0x72095a2e9c    Name: _ZN7android8hardware8graphics6mapper4V2_08BsMapperC2ENS_2spINS3_7IMapperEEE
    Address: 0x72095a53e0    Name: _ZNSt3__127__tree_balance_after_insertIPNS_16__tree_node_baseIPvEEEEvT_S5_
    Address: 0x72095a0ee4    Name: _ZN7android8hardware8graphics6mapper4V2_010BpHwMapper12importBufferERKNS0_11hidl_handleENSt3__18functionIFvNS3_5ErrorEPvEEE
    Address: 0x72095a1320    Name: _ZN7android8hardware8graphics6mapper4V2_010BpHwMapper19interfaceDescriptorENSt3__18functionIFvRKNS0_11hidl_stringEEEE
    Address: 0x72095a8008    Name: _ZN7android8hardware8graphics6mapper4V2_07IMapper10descriptorE
    Address: 0x72095a322c    Name: _ZN7android8hardware8graphics6mapper4V2_07IMapper13tryGetServiceERKNSt3__112basic_stringIcNS5_11char_traitsIcEENS5_9allocatorIcEEEEb
    Address: 0x72095a96e0    Name: _ZTCN7android8hardware8graphics6mapper4V2_010BpHwMapperE0_NS0_11BpInterfaceINS3_7IMapperEEE
    Address: 0x72095a9348    Name: _ZTTN7android8hardware8graphics6mapper4V2_010BnHwMapperE
    Address: 0x72095a9018    Name: _ZTVN7android8hardware8graphics6mapper4V2_010BpHwMapperE
    Address: 0x72095a19d8    Name: _ZN7android8hardware8graphics6mapper4V2_010BnHwMapperC2ERKNS_2spINS3_7IMapperEEE
    Address: 0x72095a22e8    Name: _ZN7android8hardware8graphics6mapper4V2_010BnHwMapperD1Ev
    Address: 0x72095a0c64    Name: _ZN7android8hardware8graphics6mapper4V2_010BpHwMapper12_hidl_unlockEPNS0_10IInterfaceEPNS0_7details16HidlInstrumentorEPvNSt3__18functionIFvNS3_5ErrorERKNS0_11hidl_handleEEEE
    Address: 0x720959fb38    Name: _ZN7android8hardware8graphics6mapper4V2_07IMapper13unlinkToDeathERKNS_2spINS0_20hidl_death_recipientEEE
    Address: 0x72095a6118    Name: _ZNSt3__16vectorIN7android2spINS1_8hardware27hidl_binder_death_recipientEEENS_9allocatorIS5_EEE21__push_back_slow_pathIS5_EEvOT_
    Address: 0x72095a1224    Name: _ZN7android8hardware8graphics6mapper4V2_010BpHwMapper14interfaceChainENSt3__18functionIFvRKNS0_8hidl_vecINS0_11hidl_stringEEEEEE
    Address: 0x72095a0fcc    Name: _ZN7android8hardware8graphics6mapper4V2_010BpHwMapper4lockEPvmRKNS3_7IMapper4RectERKNS0_11hidl_handleENSt3__18functionIFvNS3_5ErrorES5_EEE
    Address: 0x720959fa58    Name: _ZN7android8hardware8graphics6mapper4V2_07IMapper11linkToDeathERKNS_2spINS0_20hidl_death_recipientEEEm
    Address: 0x720959fb58    Name: _ZN7android8hardware8graphics6mapper4V2_07IMapper8castFromERKNS_2spIS4_EEb
    Address: 0x72095a9b08    Name: _ZTCN7android8hardware8graphics6mapper4V2_010BpHwMapperE16_NS0_11BpHwRefBaseE
    Address: 0x72095a95f8    Name: _ZTCN7android8hardware8graphics6mapper4V2_07IMapperE0_NS_4hidl4base4V1_05IBaseE
    Address: 0x72095a9248    Name: _ZTVN7android8hardware8graphics6mapper4V2_010BnHwMapperE

Base: 0x7208a9f000    Name: android.hardware.graphics.mapper@2.1.so
    Address: 0x7208aad350    Name: _ZN7android8hardware8graphics6mapper4V2_110BnHwMapperD0Ev
    Address: 0x7208aad0ac    Name: _ZN7android8hardware8graphics6mapper4V2_110BnHwMapperD2Ev
    Address: 0x7208aac79c    Name: _ZN7android8hardware8graphics6mapper4V2_110BpHwMapper13unlinkToDeathERKNS_2spINS0_20hidl_death_recipientEEE
    Address: 0x7208aac4bc    Name: _ZN7android8hardware8graphics6mapper4V2_110BpHwMapper21setHALInstrumentationEv
    Address: 0x7208aaaa88    Name: _ZN7android8hardware8graphics6mapper4V2_17IMapper11linkToDeathERKNS_2spINS0_20hidl_death_recipientEEEm
    Address: 0x7208ab4c50    Name: _ZTCN7android8hardware8graphics6mapper4V2_110BpHwMapperE0_NS_4hidl4base4V1_05IBaseE
    Address: 0x7208ab4018    Name: _ZTVN7android8hardware8graphics6mapper4V2_110BpHwMapperE
    Address: 0x7208aad674    Name: _ZN7android8hardware8graphics6mapper4V2_110BnHwMapper12getDebugInfoENSt3__18functionIFvRKNS_4hidl4base4V1_09DebugInfoEEEE
    Address: 0x7208aabd20    Name: _ZN7android8hardware8graphics6mapper4V2_110BpHwMapper10freeBufferEPv
    Address: 0x7208ab4660    Name: _ZTCN7android8hardware8graphics6mapper4V2_17IMapperE0_NS2_4V2_07IMapperE
    Address: 0x7208aad718    Name: _ZN7android8hardware8graphics6mapper4V2_110BnHwMapper10onTransactEjRKNS0_6ParcelEPS5_jNSt3__18functionIFvRS5_EEE
    Address: 0x7208aacd28    Name: _ZN7android8hardware8graphics6mapper4V2_110BnHwMapperC1ERKNS_2spINS3_7IMapperEEE
    Address: 0x7208aac2dc    Name: _ZN7android8hardware8graphics6mapper4V2_110BpHwMapper5debugERKNS0_11hidl_handleERKNS0_8hidl_vecINS0_11hidl_stringEEE
    Address: 0x7208aac6a8    Name: _ZN7android8hardware8graphics6mapper4V2_110BpHwMapper12getDebugInfoENSt3__18functionIFvRKNS_4hidl4base4V1_09DebugInfoEEEE
    Address: 0x7208aae054    Name: _ZN7android8hardware8graphics6mapper4V2_17IMapper13tryGetServiceERKNSt3__112basic_stringIcNS5_11char_traitsIcEENS5_9allocatorIcEEEEb
    Address: 0x7208ab140c    Name: _ZNSt3__16vectorIN7android2spINS1_8hardware27hidl_binder_death_recipientEEENS_9allocatorIS5_EEE21__push_back_slow_pathIS5_EEvOT_
    Address: 0x7208ab4e78    Name: _ZTCN7android8hardware8graphics6mapper4V2_110BnHwMapperE0_NS_4hidl4base4V1_08BnHwBaseE
    Address: 0x7208aad490    Name: _ZN7android8hardware8graphics6mapper4V2_110BnHwMapper26_hidl_createDescriptor_2_1EPNS_4hidl4base4V1_08BnHwBaseERKNS0_6ParcelEPSA_NSt3__18functionIFvRSA_EEE
    Address: 0x7208aad664    Name: _ZN7android8hardware8graphics6mapper4V2_110BnHwMapper4pingEv
    Address: 0x7208aab838    Name: _ZN7android8hardware8graphics6mapper4V2_110BpHwMapper26_hidl_createDescriptor_2_1EPNS0_10IInterfaceEPNS0_7details16HidlInstrumentorERKNS3_7IMapper20BufferDescriptorInfoENSt3__18functionIFvNS2_4V2_05ErrorERKNS0_8hidl_vecIjEEEEE
    Address: 0x7208aabd34    Name: _ZN7android8hardware8graphics6mapper4V2_110BpHwMapper4lockEPvmRKNS2_4V2_07IMapper4RectERKNS0_11hidl_handleENSt3__18functionIFvNS6_5ErrorES5_EEE
    Address: 0x7208aab388    Name: _ZN7android8hardware8graphics6mapper4V2_110BpHwMapperC1ERKNS_2spINS0_7IBinderEEE
    Address: 0x7208aaaf10    Name: _ZN7android8hardware8graphics6mapper4V2_17IMapper8castFromERKNS_2spINS_4hidl4base4V1_05IBaseEEEb
    Address: 0x7208ab4630    Name: _ZTTN7android8hardware8graphics6mapper4V2_17IMapperE
    Address: 0x7208ab4500    Name: _ZTVN7android8hardware8graphics6mapper4V2_17IMapperE
    Address: 0x7208aac78c    Name: _ZN7android8hardware8graphics6mapper4V2_110BpHwMapper21notifySyspropsChangedEv
    Address: 0x7208aab534    Name: _ZN7android8hardware8graphics6mapper4V2_110BpHwMapper24_hidl_validateBufferSizeEPNS0_10IInterfaceEPNS0_7details16HidlInstrumentorEPvRKNS3_7IMapper20BufferDescriptorInfoEj
    Address: 0x7208aaa8c0    Name: _ZN7android8hardware8graphics6mapper4V2_17IMapper12getHashChainENSt3__18functionIFvRKNS0_8hidl_vecINS0_10hidl_arrayIhLm32EJEEEEEEEE
    Address: 0x7208aaa6e4    Name: _ZN7android8hardware8graphics6mapper4V2_17IMapper14interfaceChainENSt3__18functionIFvRKNS0_8hidl_vecINS0_11hidl_stringEEEEEE
    Address: 0x7208ab05b0    Name: _ZNSt3__16__treeINS_12__value_typeINS_12basic_stringIcNS_11char_traitsIcEENS_9allocatorIcEEEENS_8functionIFN7android2spINS9_8hardware7IBinderEEEPvEEEEENS_19__map_value_compareIS7_SH_NS_4lessIS7_EELb1EEENS5_ISH_EEE12__find_equalIS7_EERPNS_16__tree_node_baseISE_EERPNS_15__tree_end_nodeISR_EERKT_
    Address: 0x7208ab4d38    Name: _ZTCN7android8hardware8graphics6mapper4V2_110BpHwMapperE8_NS0_10IInterfaceE
    Address: 0x7208aac114    Name: _ZN7android8hardware8graphics6mapper4V2_110BpHwMapper20createDescriptor_2_1ERKNS3_7IMapper20BufferDescriptorInfoENSt3__18functionIFvNS2_4V2_05ErrorERKNS0_8hidl_vecIjEEEEE
    Address: 0x7208aaaab8    Name: _ZN7android8hardware8graphics6mapper4V2_17IMapper12getDebugInfoENSt3__18functionIFvRKNS_4hidl4base4V1_09DebugInfoEEEE
    Address: 0x7208aadcb0    Name: _ZN7android8hardware8graphics6mapper4V2_18BsMapperC2ENS_2spINS3_7IMapperEEE
    Address: 0x7208ab0964    Name: _ZNSt3__16__treeINS_12__value_typeINS_12basic_stringIcNS_11char_traitsIcEENS_9allocatorIcEEEENS_8functionIFN7android2spINS9_4hidl4base4V1_05IBaseEEEPvEEEEENS_19__map_value_compareIS7_SJ_NS_4lessIS7_EELb1EEENS5_ISJ_EEE12__find_equalIS7_EERPNS_16__tree_node_baseISG_EERPNS_15__tree_end_nodeIST_EERKT_
    Address: 0x7208ab4a08    Name: _ZTCN7android8hardware8graphics6mapper4V2_110BpHwMapperE0_NS3_7IMapperE
    Address: 0x7208aac4cc    Name: _ZN7android8hardware8graphics6mapper4V2_110BpHwMapper11linkToDeathERKNS_2spINS0_20hidl_death_recipientEEEm
    Address: 0x7208aabf5c    Name: _ZN7android8hardware8graphics6mapper4V2_110BpHwMapper6unlockEPvNSt3__18functionIFvNS2_4V2_05ErrorERKNS0_11hidl_handleEEEE
    Address: 0x7208aabe48    Name: _ZN7android8hardware8graphics6mapper4V2_110BpHwMapper9lockYCbCrEPvmRKNS2_4V2_07IMapper4RectERKNS0_11hidl_handleENSt3__18functionIFvNS6_5ErrorERKNS6_11YCbCrLayoutEEEE
    Address: 0x7208ab3008    Name: _ZN7android8hardware8graphics6mapper4V2_17IMapper10descriptorE
    Address: 0x7208aaab68    Name: _ZN7android8hardware8graphics6mapper4V2_17IMapper13unlinkToDeathERKNS_2spINS0_20hidl_death_recipientEEE
    Address: 0x7208aaa82c    Name: _ZN7android8hardware8graphics6mapper4V2_17IMapper19interfaceDescriptorENSt3__18functionIFvRKNS0_11hidl_stringEEEE
    Address: 0x7208aaaa78    Name: _ZN7android8hardware8graphics6mapper4V2_17IMapper21setHALInstrumentationEv
    Address: 0x7208ab41e0    Name: _ZTTN7android8hardware8graphics6mapper4V2_110BpHwMapperE
    Address: 0x7208aaafb4    Name: _ZN7android8hardware7details13castInterfaceINS0_8graphics6mapper4V2_17IMapperENS_4hidl4base4V1_05IBaseENS5_10BpHwMapperEEENS0_6ReturnINS_2spIT_EEEENSD_IT0_EEPKcb
    Address: 0x7208aac9ac    Name: _ZN7android8hardware8graphics6mapper4V2_110BnHwMapperC2ERKNS_2spINS3_7IMapperEEE
    Address: 0x7208aae360    Name: _ZN7android8hardware8graphics6mapper4V2_17IMapper24registerForNotificationsERKNSt3__112basic_stringIcNS5_11char_traitsIcEENS5_9allocatorIcEEEERKNS_2spINS_4hidl7manager4V1_020IServiceNotificationEEE
    Address: 0x7208ab4dd0    Name: _ZTCN7android8hardware8graphics6mapper4V2_110BpHwMapperE16_NS0_11BpHwRefBaseE
    Address: 0x7208aad2e8    Name: _ZThn32_N7android8hardware8graphics6mapper4V2_110BnHwMapperD1Ev
    Address: 0x7208aaaaa8    Name: _ZN7android8hardware8graphics6mapper4V2_17IMapper4pingEv
    Address: 0x7208ab4270    Name: _ZTVN7android8hardware8graphics6mapper4V2_110BnHwMapperE
    Address: 0x7208aad3c0    Name: _ZTv0_n24_N7android8hardware8graphics6mapper4V2_110BnHwMapperD0Ev
    Address: 0x7208aad2bc    Name: _ZN7android8hardware8graphics6mapper4V2_110BnHwMapperD1Ev
    Address: 0x7208aae2c4    Name: _ZN7android8hardware8graphics6mapper4V2_17IMapper10getServiceERKNSt3__112basic_stringIcNS5_11char_traitsIcEENS5_9allocatorIcEEEEb
    Address: 0x7208ab0b74    Name: _ZNSt3__16__treeINS_12__value_typeINS_12basic_stringIcNS_11char_traitsIcEENS_9allocatorIcEEEENS_8functionIFN7android2spINS9_8hardware7IBinderEEEPvEEEEENS_19__map_value_compareIS7_SH_NS_4lessIS7_EELb1EEENS5_ISH_EEE4findIS7_EENS_15__tree_iteratorISH_PNS_11__tree_nodeISH_SE_EElEERKT_
    Address: 0x7208aac3d8    Name: _ZN7android8hardware8graphics6mapper4V2_110BpHwMapper12getHashChainENSt3__18functionIFvRKNS0_8hidl_vecINS0_10hidl_arrayIhLm32EJEEEEEEEE
    Address: 0x7208aac2f4    Name: _ZN7android8hardware8graphics6mapper4V2_110BpHwMapper19interfaceDescriptorENSt3__18functionIFvRKNS0_11hidl_stringEEEE
    Address: 0x7208aac698    Name: _ZN7android8hardware8graphics6mapper4V2_110BpHwMapper4pingEv
    Address: 0x7208aade3c    Name: _ZN7android8hardware8graphics6mapper4V2_18BsMapperC1ENS_2spINS3_7IMapperEEE
    Address: 0x7208ab1124    Name: _ZNSt3__16__treeINS_12__value_typeINS_12basic_stringIcNS_11char_traitsIcEENS_9allocatorIcEEEENS_8functionIFN7android2spINS9_4hidl4base4V1_05IBaseEEEPvEEEEENS_19__map_value_compareIS7_SJ_NS_4lessIS7_EELb1EEENS5_ISJ_EEE4findIS7_EENS_15__tree_iteratorISJ_PNS_11__tree_nodeISJ_SG_EElEERKT_
    Address: 0x7208ab1230    Name: _ZNSt3__16__treeINS_12__value_typeINS_12basic_stringIcNS_11char_traitsIcEENS_9allocatorIcEEEENS_8functionIFN7android2spINS9_4hidl4base4V1_05IBaseEEEPvEEEEENS_19__map_value_compareIS7_SJ_NS_4lessIS7_EELb1EEENS5_ISJ_EEE5eraseENS_21__tree_const_iteratorISJ_PNS_11__tree_nodeISJ_SG_EElEE
    Address: 0x7208aac04c    Name: _ZN7android8hardware8graphics6mapper4V2_110BpHwMapper16getTransportSizeEPvNSt3__18functionIFvNS2_4V2_05ErrorEjjEEE
    Address: 0x7208aac1f8    Name: _ZN7android8hardware8graphics6mapper4V2_110BpHwMapper14interfaceChainENSt3__18functionIFvRKNS0_8hidl_vecINS0_11hidl_stringEEEEEE
    Address: 0x7208aaab88    Name: _ZN7android8hardware8graphics6mapper4V2_17IMapper8castFromERKNS_2spIS4_EEb
    Address: 0x7208aab1d8    Name: _ZN7android8hardware8graphics6mapper4V2_110BpHwMapperC2ERKNS_2spINS0_7IBinderEEE
    Address: 0x7208ab43b0    Name: _ZTVN7android8hardware8graphics6mapper4V2_18BsMapperE
    Address: 0x7208aaa81c    Name: _ZN7android8hardware8graphics6mapper4V2_17IMapper5debugERKNS0_11hidl_handleERKNS0_8hidl_vecINS0_11hidl_stringEEE
    Address: 0x7208aad400    Name: _ZN7android8hardware8graphics6mapper4V2_110BnHwMapper24_hidl_validateBufferSizeEPNS_4hidl4base4V1_08BnHwBaseERKNS0_6ParcelEPSA_NSt3__18functionIFvRSA_EEE
    Address: 0x7208aac048    Name: _ZN7android8hardware8graphics6mapper4V2_110BpHwMapper18validateBufferSizeEPvRKNS3_7IMapper20BufferDescriptorInfoEj
    Address: 0x7208aaab3c    Name: _ZN7android8hardware8graphics6mapper4V2_17IMapper21notifySyspropsChangedEv
    Address: 0x7208aaac48    Name: _ZN7android8hardware8graphics6mapper4V2_17IMapper8castFromERKNS_2spINS2_4V2_07IMapperEEEb
    Address: 0x7208aadfa0    Name: _ZN7android8hardware8graphics6mapper4V2_18BsMapper13addOnewayTaskENSt3__18functionIFvvEEE
    Address: 0x7208ab0c80    Name: _ZNSt3__16__treeINS_12__value_typeINS_12basic_stringIcNS_11char_traitsIcEENS_9allocatorIcEEEENS_8functionIFN7android2spINS9_8hardware7IBinderEEEPvEEEEENS_19__map_value_compareIS7_SH_NS_4lessIS7_EELb1EEENS5_ISH_EEE5eraseENS_21__tree_const_iteratorISH_PNS_11__tree_nodeISH_SE_EElEE
    Address: 0x7208aaacec    Name: _ZN7android8hardware7details13castInterfaceINS0_8graphics6mapper4V2_17IMapperENS4_4V2_07IMapperENS5_10BpHwMapperEEENS0_6ReturnINS_2spIT_EEEENSB_IT0_EEPKcb
    Address: 0x7208aae060    Name: _ZN7android8hardware7details18getServiceInternalINS0_8graphics6mapper4V2_110BpHwMapperENS5_7IMapperEvvEENS_2spIT0_EERKNSt3__112basic_stringIcNSB_11char_traitsIcEENSB_9allocatorIcEEEEbb
    Address: 0x7208aabc34    Name: _ZN7android8hardware8graphics6mapper4V2_110BpHwMapper12importBufferERKNS0_11hidl_handleENSt3__18functionIFvNS2_4V2_05ErrorEPvEEE
    Address: 0x7208ab06d4    Name: _ZNSt3__127__tree_balance_after_insertIPNS_16__tree_node_baseIPvEEEEvT_S5_
    Address: 0x7208ab5110    Name: _ZTCN7android8hardware8graphics6mapper4V2_18BsMapperE0_NS3_7IMapperE
    Address: 0x7208ab4370    Name: _ZTTN7android8hardware8graphics6mapper4V2_110BnHwMapperE
    Address: 0x7208aabb48    Name: _ZN7android8hardware8graphics6mapper4V2_110BpHwMapper16createDescriptorERKNS2_4V2_07IMapper20BufferDescriptorInfoENSt3__18functionIFvNS5_5ErrorERKNS0_8hidl_vecIjEEEEE
    Address: 0x7208aab6ac    Name: _ZN7android8hardware8graphics6mapper4V2_110BpHwMapper22_hidl_getTransportSizeEPNS0_10IInterfaceEPNS0_7details16HidlInstrumentorEPvNSt3__18functionIFvNS2_4V2_05ErrorEjjEEE
    Address: 0x7208ab5038    Name: _ZTCN7android8hardware8graphics6mapper4V2_110BnHwMapperE0_NS0_7IBinderE
    Address: 0x7208ab4f58    Name: _ZTCN7android8hardware8graphics6mapper4V2_110BnHwMapperE0_NS0_9BHwBinderE
    Address: 0x7208ab4860    Name: _ZTCN7android8hardware8graphics6mapper4V2_110BpHwMapperE0_NS0_11BpInterfaceINS3_7IMapperEEE
    Address: 0x7208ab4b38    Name: _ZTCN7android8hardware8graphics6mapper4V2_110BpHwMapperE0_NS2_4V2_07IMapperE
    Address: 0x7208aad448    Name: _ZN7android8hardware8graphics6mapper4V2_110BnHwMapper22_hidl_getTransportSizeEPNS_4hidl4base4V1_08BnHwBaseERKNS0_6ParcelEPSA_NSt3__18functionIFvRSA_EEE
    Address: 0x7208ab0d50    Name: _ZNSt3__113__tree_removeIPNS_16__tree_node_baseIPvEEEEvT_S5_
    Address: 0x7208ab4778    Name: _ZTCN7android8hardware8graphics6mapper4V2_17IMapperE0_NS_4hidl4base4V1_05IBaseE
    Address: 0x7208aad384    Name: _ZThn32_N7android8hardware8graphics6mapper4V2_110BnHwMapperD0Ev
    Address: 0x7208aae2d0    Name: _ZN7android8hardware8graphics6mapper4V2_17IMapper17registerAsServiceERKNSt3__112basic_stringIcNS5_11char_traitsIcEENS5_9allocatorIcEEEE
    Address: 0x7208aad318    Name: _ZTv0_n24_N7android8hardware8graphics6mapper4V2_110BnHwMapperD1Ev

Base: 0x7208cd9000    Name: android.hardware.graphics.mapper@3.0.so
    Address: 0x7208ce7170    Name: _ZN7android8hardware8graphics6mapper4V3_010BnHwMapperC2ERKNS_2spINS3_7IMapperEEE
    Address: 0x7208ce4a48    Name: _ZN7android8hardware8graphics6mapper4V3_07IMapper21setHALInstrumentationEv
    Address: 0x7208cebe48    Name: _ZNSt3__16__treeINS_12__value_typeINS_12basic_stringIcNS_11char_traitsIcEENS_9allocatorIcEEEENS_8functionIFN7android2spINS9_4hidl4base4V1_05IBaseEEEPvEEEEENS_19__map_value_compareIS7_SJ_NS_4lessIS7_EELb1EEENS5_ISJ_EEE4findIS7_EENS_15__tree_iteratorISJ_PNS_11__tree_nodeISJ_SG_EElEERKT_
    Address: 0x7208ce7fc4    Name: _ZN7android8hardware8graphics6mapper4V3_010BnHwMapper24_hidl_validateBufferSizeEPNS_4hidl4base4V1_08BnHwBaseERKNS0_6ParcelEPSA_NSt3__18functionIFvRSA_EEE
    Address: 0x7208ce5f68    Name: _ZN7android8hardware8graphics6mapper4V3_010BpHwMapper12_hidl_unlockEPNS0_10IInterfaceEPNS0_7details16HidlInstrumentorEPvNSt3__18functionIFvNS3_5ErrorERKNS0_11hidl_handleEEEE
    Address: 0x7208ce6b9c    Name: _ZN7android8hardware8graphics6mapper4V3_010BpHwMapper12getHashChainENSt3__18functionIFvRKNS0_8hidl_vecINS0_10hidl_arrayIhLm32EJEEEEEEEE
    Address: 0x7208cef260    Name: _ZTVN7android8hardware8graphics6mapper4V3_010BnHwMapperE
    Address: 0x7208ce7b48    Name: _ZThn32_N7android8hardware8graphics6mapper4V3_010BnHwMapperD0Ev
    Address: 0x7208ce80d4    Name: _ZN7android8hardware8graphics6mapper4V3_010BnHwMapper15_hidl_lockYCbCrEPNS_4hidl4base4V1_08BnHwBaseERKNS0_6ParcelEPSA_NSt3__18functionIFvRSA_EEE
    Address: 0x7208ce7b14    Name: _ZN7android8hardware8graphics6mapper4V3_010BnHwMapperD0Ev
    Address: 0x7208ce4b38    Name: _ZN7android8hardware8graphics6mapper4V3_07IMapper13unlinkToDeathERKNS_2spINS0_20hidl_death_recipientEEE
    Address: 0x7208ceb3f8    Name: _ZNSt3__127__tree_balance_after_insertIPNS_16__tree_node_baseIPvEEEEvT_S5_
    Address: 0x7208cebf54    Name: _ZNSt3__16__treeINS_12__value_typeINS_12basic_stringIcNS_11char_traitsIcEENS_9allocatorIcEEEENS_8functionIFN7android2spINS9_4hidl4base4V1_05IBaseEEEPvEEEEENS_19__map_value_compareIS7_SJ_NS_4lessIS7_EELb1EEENS5_ISJ_EEE5eraseENS_21__tree_const_iteratorISJ_PNS_11__tree_nodeISJ_SG_EElEE
    Address: 0x7208ce8054    Name: _ZN7android8hardware8graphics6mapper4V3_010BnHwMapper10_hidl_lockEPNS_4hidl4base4V1_08BnHwBaseERKNS0_6ParcelEPSA_NSt3__18functionIFvRSA_EEE
    Address: 0x7208cefc28    Name: _ZTCN7android8hardware8graphics6mapper4V3_010BnHwMapperE0_NS_4hidl4base4V1_08BnHwBaseE
    Address: 0x7208ce6f60    Name: _ZN7android8hardware8graphics6mapper4V3_010BpHwMapper13unlinkToDeathERKNS_2spINS0_20hidl_death_recipientEEE
    Address: 0x7208ce63e8    Name: _ZN7android8hardware8graphics6mapper4V3_010BpHwMapper16createDescriptorERKNS3_7IMapper20BufferDescriptorInfoENSt3__18functionIFvNS3_5ErrorERKNS0_8hidl_vecIjEEEEE
    Address: 0x7208ce7870    Name: _ZN7android8hardware8graphics6mapper4V3_010BnHwMapperD2Ev
    Address: 0x7208cef018    Name: _ZTVN7android8hardware8graphics6mapper4V3_010BpHwMapperE
    Address: 0x7208ce7adc    Name: _ZTv0_n24_N7android8hardware8graphics6mapper4V3_010BnHwMapperD1Ev
    Address: 0x7208ce65b0    Name: _ZN7android8hardware8graphics6mapper4V3_010BpHwMapper10freeBufferEPv
    Address: 0x7208ce4b58    Name: _ZN7android8hardware8graphics6mapper4V3_07IMapper8castFromERKNS_2spIS4_EEb
    Address: 0x7208cece98    Name: _ZN7android8hardware8graphics6mapper4V3_022readEmbeddedFromParcelERKNS3_11YCbCrLayoutERKNS0_6ParcelEmm
    Address: 0x7208ce4a58    Name: _ZN7android8hardware8graphics6mapper4V3_07IMapper11linkToDeathERKNS_2spINS0_20hidl_death_recipientEEEm
    Address: 0x7208ce4c18    Name: _ZN7android8hardware8graphics6mapper4V3_07IMapper8castFromERKNS_2spINS_4hidl4base4V1_05IBaseEEEb
    Address: 0x7208ceb2d4    Name: _ZNSt3__16__treeINS_12__value_typeINS_12basic_stringIcNS_11char_traitsIcEENS_9allocatorIcEEEENS_8functionIFN7android2spINS9_8hardware7IBinderEEEPvEEEEENS_19__map_value_compareIS7_SH_NS_4lessIS7_EELb1EEENS5_ISH_EEE12__find_equalIS7_EERPNS_16__tree_node_baseISE_EERPNS_15__tree_end_nodeISR_EERKT_
    Address: 0x7208cefd08    Name: _ZTCN7android8hardware8graphics6mapper4V3_010BnHwMapperE0_NS0_9BHwBinderE
    Address: 0x7208cefa00    Name: _ZTCN7android8hardware8graphics6mapper4V3_010BpHwMapperE0_NS_4hidl4base4V1_05IBaseE
    Address: 0x7208cef640    Name: _ZTCN7android8hardware8graphics6mapper4V3_07IMapperE0_NS_4hidl4base4V1_05IBaseE
    Address: 0x7208cef3a0    Name: _ZTVN7android8hardware8graphics6mapper4V3_08BsMapperE
    Address: 0x7208ce65b8    Name: _ZN7android8hardware8graphics6mapper4V3_010BpHwMapper16getTransportSizeEPvNSt3__18functionIFvNS3_5ErrorEjjEEE
    Address: 0x7208ce9084    Name: _ZN7android8hardware8graphics6mapper4V3_07IMapper24registerForNotificationsERKNSt3__112basic_stringIcNS5_11char_traitsIcEENS5_9allocatorIcEEEERKNS_2spINS_4hidl7manager4V1_020IServiceNotificationEEE
    Address: 0x7208cefde8    Name: _ZTCN7android8hardware8graphics6mapper4V3_010BnHwMapperE0_NS0_7IBinderE
    Address: 0x7208ce5228    Name: _ZN7android8hardware8graphics6mapper4V3_010BpHwMapper22_hidl_createDescriptorEPNS0_10IInterfaceEPNS0_7details16HidlInstrumentorERKNS3_7IMapper20BufferDescriptorInfoENSt3__18functionIFvNS3_5ErrorERKNS0_8hidl_vecIjEEEEE
    Address: 0x7208ce4a88    Name: _ZN7android8hardware8graphics6mapper4V3_07IMapper12getDebugInfoENSt3__18functionIFvRKNS_4hidl4base4V1_09DebugInfoEEEE
    Address: 0x7208cef4f0    Name: _ZTVN7android8hardware8graphics6mapper4V3_07IMapperE
    Address: 0x7208ce8380    Name: _ZN7android8hardware8graphics6mapper4V3_010BnHwMapper12getDebugInfoENSt3__18functionIFvRKNS_4hidl4base4V1_09DebugInfoEEEE
    Address: 0x7208ceb9a4    Name: _ZNSt3__16__treeINS_12__value_typeINS_12basic_stringIcNS_11char_traitsIcEENS_9allocatorIcEEEENS_8functionIFN7android2spINS9_8hardware7IBinderEEEPvEEEEENS_19__map_value_compareIS7_SH_NS_4lessIS7_EELb1EEENS5_ISH_EEE5eraseENS_21__tree_const_iteratorISH_PNS_11__tree_nodeISH_SE_EElEE
    Address: 0x7208cefb80    Name: _ZTCN7android8hardware8graphics6mapper4V3_010BpHwMapperE16_NS0_11BpHwRefBaseE
    Address: 0x7208ce8154    Name: _ZN7android8hardware8graphics6mapper4V3_010BnHwMapper12_hidl_unlockEPNS_4hidl4base4V1_08BnHwBaseERKNS0_6ParcelEPSA_NSt3__18functionIFvRSA_EEE
    Address: 0x7208ce7bc4    Name: _ZN7android8hardware8graphics6mapper4V3_010BnHwMapper22_hidl_createDescriptorEPNS_4hidl4base4V1_08BnHwBaseERKNS0_6ParcelEPSA_NSt3__18functionIFvRSA_EEE
    Address: 0x7208ce6e5c    Name: _ZN7android8hardware8graphics6mapper4V3_010BpHwMapper4pingEv
    Address: 0x7208ce4a78    Name: _ZN7android8hardware8graphics6mapper4V3_07IMapper4pingEv
    Address: 0x7208ceb898    Name: _ZNSt3__16__treeINS_12__value_typeINS_12basic_stringIcNS_11char_traitsIcEENS_9allocatorIcEEEENS_8functionIFN7android2spINS9_8hardware7IBinderEEEPvEEEEENS_19__map_value_compareIS7_SH_NS_4lessIS7_EELb1EEENS5_ISH_EEE4findIS7_EENS_15__tree_iteratorISH_PNS_11__tree_nodeISH_SE_EElEERKT_
    Address: 0x7208cef8d0    Name: _ZTCN7android8hardware8graphics6mapper4V3_010BpHwMapperE0_NS3_7IMapperE
    Address: 0x7208ce6aa0    Name: _ZN7android8hardware8graphics6mapper4V3_010BpHwMapper5debugERKNS0_11hidl_handleERKNS0_8hidl_vecINS0_11hidl_stringEEE
    Address: 0x7208ce8d78    Name: _ZN7android8hardware8graphics6mapper4V3_07IMapper13tryGetServiceERKNSt3__112basic_stringIcNS5_11char_traitsIcEENS5_9allocatorIcEEEEb
    Address: 0x7208ce8cc4    Name: _ZN7android8hardware8graphics6mapper4V3_08BsMapper13addOnewayTaskENSt3__18functionIFvvEEE
    Address: 0x7208ceba74    Name: _ZNSt3__113__tree_removeIPNS_16__tree_node_baseIPvEEEEvT_S5_
    Address: 0x7208ce69bc    Name: _ZN7android8hardware8graphics6mapper4V3_010BpHwMapper14interfaceChainENSt3__18functionIFvRKNS0_8hidl_vecINS0_11hidl_stringEEEEEE
    Address: 0x7208ce6ab8    Name: _ZN7android8hardware8graphics6mapper4V3_010BpHwMapper19interfaceDescriptorENSt3__18functionIFvRKNS0_11hidl_stringEEEE
    Address: 0x7208ce6f50    Name: _ZN7android8hardware8graphics6mapper4V3_010BpHwMapper21notifySyspropsChangedEv
    Address: 0x7208ce507c    Name: _ZN7android8hardware8graphics6mapper4V3_010BpHwMapperC1ERKNS_2spINS0_7IBinderEEE
    Address: 0x7208ce8424    Name: _ZN7android8hardware8graphics6mapper4V3_010BnHwMapper10onTransactEjRKNS0_6ParcelEPS5_jNSt3__18functionIFvRS5_EEE
    Address: 0x7208ce6748    Name: _ZN7android8hardware8graphics6mapper4V3_010BpHwMapper9lockYCbCrEPvmRKNS3_7IMapper4RectERKNS0_11hidl_handleENSt3__18functionIFvNS3_5ErrorERKNS3_11YCbCrLayoutEEEE
    Address: 0x7208ce48a4    Name: _ZN7android8hardware8graphics6mapper4V3_07IMapper12getHashChainENSt3__18functionIFvRKNS0_8hidl_vecINS0_10hidl_arrayIhLm32EJEEEEEEEE
    Address: 0x7208ce57d4    Name: _ZN7android8hardware8graphics6mapper4V3_010BpHwMapper16_hidl_freeBufferEPNS0_10IInterfaceEPNS0_7details16HidlInstrumentorEPv
    Address: 0x7208ce6810    Name: _ZN7android8hardware8graphics6mapper4V3_010BpHwMapper6unlockEPvNSt3__18functionIFvNS3_5ErrorERKNS0_11hidl_handleEEEE
    Address: 0x7208cefae8    Name: _ZTCN7android8hardware8graphics6mapper4V3_010BpHwMapperE8_NS0_10IInterfaceE
    Address: 0x7208cefec0    Name: _ZTCN7android8hardware8graphics6mapper4V3_08BsMapperE0_NS3_7IMapperE
    Address: 0x7208ce7aac    Name: _ZThn32_N7android8hardware8graphics6mapper4V3_010BnHwMapperD1Ev
    Address: 0x7208ce7a80    Name: _ZN7android8hardware8graphics6mapper4V3_010BnHwMapperD1Ev
    Address: 0x7208ce4810    Name: _ZN7android8hardware8graphics6mapper4V3_07IMapper19interfaceDescriptorENSt3__18functionIFvRKNS0_11hidl_stringEEEE
    Address: 0x7208ce4b0c    Name: _ZN7android8hardware8graphics6mapper4V3_07IMapper21notifySyspropsChangedEv
    Address: 0x7208ceb688    Name: _ZNSt3__16__treeINS_12__value_typeINS_12basic_stringIcNS_11char_traitsIcEENS_9allocatorIcEEEENS_8functionIFN7android2spINS9_4hidl4base4V1_05IBaseEEEPvEEEEENS_19__map_value_compareIS7_SJ_NS_4lessIS7_EELb1EEENS5_ISJ_EEE12__find_equalIS7_EERPNS_16__tree_node_baseISG_EERPNS_15__tree_end_nodeIST_EERKT_
    Address: 0x7208ce7b84    Name: _ZTv0_n24_N7android8hardware8graphics6mapper4V3_010BnHwMapperD0Ev
    Address: 0x7208ce8370    Name: _ZN7android8hardware8graphics6mapper4V3_010BnHwMapper4pingEv
    Address: 0x7208ce74ec    Name: _ZN7android8hardware8graphics6mapper4V3_010BnHwMapperC1ERKNS_2spINS3_7IMapperEEE
    Address: 0x7208ce5c50    Name: _ZN7android8hardware8graphics6mapper4V3_010BpHwMapper10_hidl_lockEPNS0_10IInterfaceEPNS0_7details16HidlInstrumentorEPvmRKNS3_7IMapper4RectERKNS0_11hidl_handleENSt3__18functionIFvNS3_5ErrorESA_iiEEE
    Address: 0x7208cef728    Name: _ZTCN7android8hardware8graphics6mapper4V3_010BpHwMapperE0_NS0_11BpInterfaceINS3_7IMapperEEE
    Address: 0x7208ceceb8    Name: _ZN7android8hardware8graphics6mapper4V3_021writeEmbeddedToParcelERKNS3_11YCbCrLayoutEPNS0_6ParcelEmm
    Address: 0x7208ce7d98    Name: _ZN7android8hardware8graphics6mapper4V3_010BnHwMapper18_hidl_importBufferEPNS_4hidl4base4V1_08BnHwBaseERKNS0_6ParcelEPSA_NSt3__18functionIFvRSA_EEE
    Address: 0x7208ce6c80    Name: _ZN7android8hardware8graphics6mapper4V3_010BpHwMapper21setHALInstrumentationEv
    Address: 0x7208ce5ac4    Name: _ZN7android8hardware8graphics6mapper4V3_010BpHwMapper22_hidl_getTransportSizeEPNS0_10IInterfaceEPNS0_7details16HidlInstrumentorEPvNSt3__18functionIFvNS3_5ErrorEjjEEE
    Address: 0x7208cee008    Name: _ZN7android8hardware8graphics6mapper4V3_07IMapper10descriptorE
    Address: 0x7208ce4cbc    Name: _ZN7android8hardware7details13castInterfaceINS0_8graphics6mapper4V3_07IMapperENS_4hidl4base4V1_05IBaseENS5_10BpHwMapperEEENS0_6ReturnINS_2spIT_EEEENSD_IT0_EEPKcb
    Address: 0x7208ce7f7c    Name: _ZN7android8hardware8graphics6mapper4V3_010BnHwMapper16_hidl_freeBufferEPNS_4hidl4base4V1_08BnHwBaseERKNS0_6ParcelEPSA_NSt3__18functionIFvRSA_EEE
    Address: 0x7208ce819c    Name: _ZN7android8hardware8graphics6mapper4V3_010BnHwMapper17_hidl_isSupportedEPNS_4hidl4base4V1_08BnHwBaseERKNS0_6ParcelEPSA_NSt3__18functionIFvRSA_EEE
    Address: 0x7208ce8ff4    Name: _ZN7android8hardware8graphics6mapper4V3_07IMapper17registerAsServiceERKNSt3__112basic_stringIcNS5_11char_traitsIcEENS5_9allocatorIcEEEE
    Address: 0x7208ce89e8    Name: _ZN7android8hardware8graphics6mapper4V3_08BsMapperC2ENS_2spINS3_7IMapperEEE
    Address: 0x7208cef360    Name: _ZTTN7android8hardware8graphics6mapper4V3_010BnHwMapperE
    Address: 0x7208cef620    Name: _ZTTN7android8hardware8graphics6mapper4V3_07IMapperE
    Address: 0x7208ce8d84    Name: _ZN7android8hardware7details18getServiceInternalINS0_8graphics6mapper4V3_010BpHwMapperENS5_7IMapperEvvEENS_2spIT0_EERKNSt3__112basic_stringIcNSB_11char_traitsIcEENSB_9allocatorIcEEEEbb
    Address: 0x7208ce554c    Name: _ZN7android8hardware8graphics6mapper4V3_010BpHwMapper18_hidl_importBufferEPNS0_10IInterfaceEPNS0_7details16HidlInstrumentorERKNS0_11hidl_handleENSt3__18functionIFvNS3_5ErrorEPvEEE
    Address: 0x7208cec130    Name: _ZNSt3__16vectorIN7android2spINS1_8hardware27hidl_binder_death_recipientEEENS_9allocatorIS5_EEE21__push_back_slow_pathIS5_EEvOT_
    Address: 0x7208ce65b4    Name: _ZN7android8hardware8graphics6mapper4V3_010BpHwMapper18validateBufferSizeEPvRKNS3_7IMapper20BufferDescriptorInfoEj
    Address: 0x7208ce594c    Name: _ZN7android8hardware8graphics6mapper4V3_010BpHwMapper24_hidl_validateBufferSizeEPNS0_10IInterfaceEPNS0_7details16HidlInstrumentorEPvRKNS3_7IMapper20BufferDescriptorInfoEj
    Address: 0x7208ce4ee0    Name: _ZN7android8hardware8graphics6mapper4V3_010BpHwMapperC2ERKNS_2spINS0_7IBinderEEE
    Address: 0x7208ce46e4    Name: _ZN7android8hardware8graphics6mapper4V3_07IMapper14interfaceChainENSt3__18functionIFvRKNS0_8hidl_vecINS0_11hidl_stringEEEEEE
    Address: 0x7208ce6c90    Name: _ZN7android8hardware8graphics6mapper4V3_010BpHwMapper11linkToDeathERKNS_2spINS0_20hidl_death_recipientEEEm
    Address: 0x7208ce64cc    Name: _ZN7android8hardware8graphics6mapper4V3_010BpHwMapper12importBufferERKNS0_11hidl_handleENSt3__18functionIFvNS3_5ErrorEPvEEE
    Address: 0x7208ce8fe8    Name: _ZN7android8hardware8graphics6mapper4V3_07IMapper10getServiceERKNSt3__112basic_stringIcNS5_11char_traitsIcEENS5_9allocatorIcEEEEb
    Address: 0x7208ce4800    Name: _ZN7android8hardware8graphics6mapper4V3_07IMapper5debugERKNS0_11hidl_handleERKNS0_8hidl_vecINS0_11hidl_stringEEE
    Address: 0x7208ce68d8    Name: _ZN7android8hardware8graphics6mapper4V3_010BpHwMapper11isSupportedERKNS3_7IMapper20BufferDescriptorInfoENSt3__18functionIFvNS3_5ErrorEbEEE
    Address: 0x7208ce5ddc    Name: _ZN7android8hardware8graphics6mapper4V3_010BpHwMapper15_hidl_lockYCbCrEPNS0_10IInterfaceEPNS0_7details16HidlInstrumentorEPvmRKNS3_7IMapper4RectERKNS0_11hidl_handleENSt3__18functionIFvNS3_5ErrorERKNS3_11YCbCrLayoutEEEE
    Address: 0x7208ce6680    Name: _ZN7android8hardware8graphics6mapper4V3_010BpHwMapper4lockEPvmRKNS3_7IMapper4RectERKNS0_11hidl_handleENSt3__18functionIFvNS3_5ErrorES5_iiEEE
    Address: 0x7208ce8b60    Name: _ZN7android8hardware8graphics6mapper4V3_08BsMapperC1ENS_2spINS3_7IMapperEEE
    Address: 0x7208cef1e0    Name: _ZTTN7android8hardware8graphics6mapper4V3_010BpHwMapperE
    Address: 0x7208ce800c    Name: _ZN7android8hardware8graphics6mapper4V3_010BnHwMapper22_hidl_getTransportSizeEPNS_4hidl4base4V1_08BnHwBaseERKNS0_6ParcelEPSA_NSt3__18functionIFvRSA_EEE
    Address: 0x7208ce6e6c    Name: _ZN7android8hardware8graphics6mapper4V3_010BpHwMapper12getDebugInfoENSt3__18functionIFvRKNS_4hidl4base4V1_09DebugInfoEEEE
    Address: 0x7208ce6104    Name: _ZN7android8hardware8graphics6mapper4V3_010BpHwMapper17_hidl_isSupportedEPNS0_10IInterfaceEPNS0_7details16HidlInstrumentorERKNS3_7IMapper20BufferDescriptorInfoENSt3__18functionIFvNS3_5ErrorEbEEE

Base: 0x716d354000    Name: android.hardware.graphics.mapper@2.0-impl-qti-display.so
    Address: 0x716d35853c    Name: _ZN6vendor3qti8hardware7display6mapper4V1_014implementation9QtiMapper10freeBufferEPv
    Address: 0x716d3585f8    Name: _ZN6vendor3qti8hardware7display6mapper4V1_014implementation9QtiMapper11WaitFenceFdEi
    Address: 0x716d35b2b0    Name: _ZTCN6vendor3qti8hardware7display6mapper4V1_014implementation9QtiMapperE0_N7android8hardware8graphics6mapper4V2_07IMapperE
    Address: 0x716d358d60    Name: _ZN6vendor3qti8hardware7display6mapper4V1_014implementation9QtiMapper20createDescriptor_2_1ERKN7android8hardware8graphics6mapper4V2_17IMapper20BufferDescriptorInfoENSt3__18functionIFvNSA_4V2_05ErrorERKNS8_8hidl_vecIjEEEEE
    Address: 0x716d358a10    Name: _ZN6vendor3qti8hardware7display6mapper4V1_014implementation9QtiMapper6unlockEPvNSt3__18functionIFvN7android8hardware8graphics6mapper4V2_05ErrorERKNSB_11hidl_handleEEEE
    Address: 0x716d35888c    Name: _ZN6vendor3qti8hardware7display6mapper4V1_014implementation9QtiMapper9lockYCbCrEPvmRKN7android8hardware8graphics6mapper4V2_07IMapper4RectERKNS9_11hidl_handleENSt3__18functionIFvNSC_5ErrorERKNSC_11YCbCrLayoutEEEE
    Address: 0x716d35b140    Name: _ZTTN6vendor3qti8hardware7display6mapper4V1_014implementation9QtiMapperE
    Address: 0x716d35b010    Name: _ZTVN6vendor3qti8hardware7display6mapper4V1_014implementation9QtiMapperE
    Address: 0x716d3583dc    Name: _ZN6vendor3qti8hardware7display6mapper4V1_014implementation9QtiMapper12importBufferERKN7android8hardware11hidl_handleENSt3__18functionIFvNS8_8graphics6mapper4V2_05ErrorEPvEEE
    Address: 0x716d358320    Name: _ZN6vendor3qti8hardware7display6mapper4V1_014implementation9QtiMapper16createDescriptorERKN7android8hardware8graphics6mapper4V2_07IMapper20BufferDescriptorInfoENSt3__18functionIFvNSB_5ErrorERKNS8_8hidl_vecIjEEEEE
    Address: 0x716d358abc    Name: _ZN6vendor3qti8hardware7display6mapper4V1_014implementation9QtiMapper18validateBufferSizeEPvRKN7android8hardware8graphics6mapper4V2_17IMapper20BufferDescriptorInfoEj
    Address: 0x716d35b3c8    Name: _ZTCN6vendor3qti8hardware7display6mapper4V1_014implementation9QtiMapperE0_N7android4hidl4base4V1_05IBaseE
    Address: 0x716d35b180    Name: _ZTCN6vendor3qti8hardware7display6mapper4V1_014implementation9QtiMapperE0_N7android8hardware8graphics6mapper4V2_17IMapperE
    Address: 0x716d358588    Name: _ZN6vendor3qti8hardware7display6mapper4V1_014implementation9QtiMapper10GetFenceFdERKN7android8hardware11hidl_handleEPi
    Address: 0x716d3586d8    Name: _ZN6vendor3qti8hardware7display6mapper4V1_014implementation9QtiMapper10LockBufferEPvmRKN7android8hardware11hidl_handleE
    Address: 0x716d358104    Name: _ZN6vendor3qti8hardware7display6mapper4V1_014implementation9QtiMapper16CreateDescriptorERKN7android8hardware8graphics6mapper4V2_17IMapper20BufferDescriptorInfoEPNS8_8hidl_vecIjEE
    Address: 0x716d358774    Name: _ZN6vendor3qti8hardware7display6mapper4V1_014implementation9QtiMapper4lockEPvmRKN7android8hardware8graphics6mapper4V2_07IMapper4RectERKNS9_11hidl_handleENSt3__18functionIFvNSC_5ErrorES7_EEE
    Address: 0x716d358014    Name: _ZN6vendor3qti8hardware7display6mapper4V1_014implementation9QtiMapperC2Ev
    Address: 0x716d358e08    Name: HIDL_FETCH_IMapper
    Address: 0x716d3580d0    Name: _ZN6vendor3qti8hardware7display6mapper4V1_014implementation9QtiMapper15ValidDescriptorERKN7android8hardware8graphics6mapper4V2_17IMapper20BufferDescriptorInfoE
    Address: 0x716d358ca8    Name: _ZN6vendor3qti8hardware7display6mapper4V1_014implementation9QtiMapper16getTransportSizeEPvNSt3__18functionIFvN7android8hardware8graphics6mapper4V2_05ErrorEjjEEE
    Address: 0x716d35808c    Name: _ZN6vendor3qti8hardware7display6mapper4V1_014implementation9QtiMapperC1Ev

Base: 0x716d312000    Name: android.hardware.graphics.mapper@2.0.so
    Address: 0x72095a007c    Name: _ZN7android8hardware8graphics6mapper4V2_010BpHwMapperC1ERKNS_2spINS0_7IBinderEEE
    Address: 0x720959fa78    Name: _ZN7android8hardware8graphics6mapper4V2_07IMapper4pingEv
    Address: 0x72095a9a70    Name: _ZTCN7android8hardware8graphics6mapper4V2_010BpHwMapperE8_NS0_10IInterfaceE
    Address: 0x72095a16c4    Name: _ZN7android8hardware8graphics6mapper4V2_010BpHwMapper4pingEv
    Address: 0x72095a349c    Name: _ZN7android8hardware8graphics6mapper4V2_07IMapper10getServiceERKNSt3__112basic_stringIcNS5_11char_traitsIcEENS5_9allocatorIcEEEEb
    Address: 0x720959fb0c    Name: _ZN7android8hardware8graphics6mapper4V2_07IMapper21notifySyspropsChangedEv
    Address: 0x72095a9870    Name: _ZTCN7android8hardware8graphics6mapper4V2_010BpHwMapperE0_NS3_7IMapperE
    Address: 0x720959f800    Name: _ZN7android8hardware8graphics6mapper4V2_07IMapper5debugERKNS0_11hidl_handleERKNS0_8hidl_vecINS0_11hidl_stringEEE
    Address: 0x72095a292c    Name: _ZN7android8hardware8graphics6mapper4V2_010BnHwMapper12_hidl_unlockEPNS_4hidl4base4V1_08BnHwBaseERKNS0_6ParcelEPSA_NSt3__18functionIFvRSA_EEE
    Address: 0x72095a2984    Name: _ZN7android8hardware8graphics6mapper4V2_010BnHwMapper12getDebugInfoENSt3__18functionIFvRKNS_4hidl4base4V1_09DebugInfoEEEE
    Address: 0x72095a115c    Name: _ZN7android8hardware8graphics6mapper4V2_010BpHwMapper6unlockEPvNSt3__18functionIFvNS3_5ErrorERKNS0_11hidl_handleEEEE
    Address: 0x72095a2344    Name: _ZTv0_n24_N7android8hardware8graphics6mapper4V2_010BnHwMapperD1Ev
    Address: 0x72095a2974    Name: _ZN7android8hardware8graphics6mapper4V2_010BnHwMapper4pingEv
    Address: 0x72095a1d54    Name: _ZN7android8hardware8graphics6mapper4V2_010BnHwMapperC1ERKNS_2spINS3_7IMapperEEE
    Address: 0x72095a0fc8    Name: _ZN7android8hardware8graphics6mapper4V2_010BpHwMapper10freeBufferEPv
    Address: 0x72095a1404    Name: _ZN7android8hardware8graphics6mapper4V2_010BpHwMapper12getHashChainENSt3__18functionIFvRKNS0_8hidl_vecINS0_10hidl_arrayIhLm32EJEEEEEEEE
    Address: 0x72095a0ad8    Name: _ZN7android8hardware8graphics6mapper4V2_010BpHwMapper15_hidl_lockYCbCrEPNS0_10IInterfaceEPNS0_7details16HidlInstrumentorEPvmRKNS3_7IMapper4RectERKNS0_11hidl_handleENSt3__18functionIFvNS3_5ErrorERKNS3_11YCbCrLayoutEEEE
    Address: 0x720959f6e4    Name: _ZN7android8hardware8graphics6mapper4V2_07IMapper14interfaceChainENSt3__18functionIFvRKNS0_8hidl_vecINS0_11hidl_stringEEEEEE
    Address: 0x72095a3014    Name: _ZN7android8hardware8graphics6mapper4V2_08BsMapperC1ENS_2spINS3_7IMapperEEE
    Address: 0x72095a5670    Name: _ZNSt3__16__treeINS_12__value_typeINS_12basic_stringIcNS_11char_traitsIcEENS_9allocatorIcEEEENS_8functionIFN7android2spINS9_4hidl4base4V1_05IBaseEEEPvEEEEENS_19__map_value_compareIS7_SJ_NS_4lessIS7_EELb1EEENS5_ISJ_EEE12__find_equalIS7_EERPNS_16__tree_node_baseISG_EERPNS_15__tree_end_nodeIST_EERKT_
    Address: 0x720959fcbc    Name: _ZN7android8hardware7details13castInterfaceINS0_8graphics6mapper4V2_07IMapperENS_4hidl4base4V1_05IBaseENS5_10BpHwMapperEEENS0_6ReturnINS_2spIT_EEEENSD_IT0_EEPKcb
    Address: 0x72095a2600    Name: _ZN7android8hardware8graphics6mapper4V2_010BnHwMapper18_hidl_importBufferEPNS_4hidl4base4V1_08BnHwBaseERKNS0_6ParcelEPSA_NSt3__18functionIFvRSA_EEE
    Address: 0x72095a094c    Name: _ZN7android8hardware8graphics6mapper4V2_010BpHwMapper10_hidl_lockEPNS0_10IInterfaceEPNS0_7details16HidlInstrumentorEPvmRKNS3_7IMapper4RectERKNS0_11hidl_handleENSt3__18functionIFvNS3_5ErrorESA_EEE
    Address: 0x720959fa88    Name: _ZN7android8hardware8graphics6mapper4V2_07IMapper12getDebugInfoENSt3__18functionIFvRKNS_4hidl4base4V1_09DebugInfoEEEE
    Address: 0x72095a598c    Name: _ZNSt3__16__treeINS_12__value_typeINS_12basic_stringIcNS_11char_traitsIcEENS_9allocatorIcEEEENS_8functionIFN7android2spINS9_8hardware7IBinderEEEPvEEEEENS_19__map_value_compareIS7_SH_NS_4lessIS7_EELb1EEENS5_ISH_EEE5eraseENS_21__tree_const_iteratorISH_PNS_11__tree_nodeISH_SE_EElEE
    Address: 0x72095a3238    Name: _ZN7android8hardware7details18getServiceInternalINS0_8graphics6mapper4V2_010BpHwMapperENS5_7IMapperEvvEENS_2spIT0_EERKNSt3__112basic_stringIcNSB_11char_traitsIcEENSB_9allocatorIcEEEEbb
    Address: 0x72095a20d8    Name: _ZN7android8hardware8graphics6mapper4V2_010BnHwMapperD2Ev
    Address: 0x72095a07d4    Name: _ZN7android8hardware8graphics6mapper4V2_010BpHwMapper16_hidl_freeBufferEPNS0_10IInterfaceEPNS0_7details16HidlInstrumentorEPv
    Address: 0x720959fee0    Name: _ZN7android8hardware8graphics6mapper4V2_010BpHwMapperC2ERKNS_2spINS0_7IBinderEEE
    Address: 0x720959f8a4    Name: _ZN7android8hardware8graphics6mapper4V2_07IMapper12getHashChainENSt3__18functionIFvRKNS0_8hidl_vecINS0_10hidl_arrayIhLm32EJEEEEEEEE
    Address: 0x72095a2a28    Name: _ZN7android8hardware8graphics6mapper4V2_010BnHwMapper10onTransactEjRKNS0_6ParcelEPS5_jNSt3__18functionIFvRS5_EEE
    Address: 0x720959fc18    Name: _ZN7android8hardware8graphics6mapper4V2_07IMapper8castFromERKNS_2spINS_4hidl4base4V1_05IBaseEEEb
    Address: 0x72095a95d8    Name: _ZTTN7android8hardware8graphics6mapper4V2_07IMapperE
    Address: 0x72095a054c    Name: _ZN7android8hardware8graphics6mapper4V2_010BpHwMapper18_hidl_importBufferEPNS0_10IInterfaceEPNS0_7details16HidlInstrumentorERKNS0_11hidl_handleENSt3__18functionIFvNS3_5ErrorEPvEEE
    Address: 0x720959f810    Name: _ZN7android8hardware8graphics6mapper4V2_07IMapper19interfaceDescriptorENSt3__18functionIFvRKNS0_11hidl_stringEEEE
    Address: 0x720959fa48    Name: _ZN7android8hardware8graphics6mapper4V2_07IMapper21setHALInstrumentationEv
    Address: 0x72095a5880    Name: _ZNSt3__16__treeINS_12__value_typeINS_12basic_stringIcNS_11char_traitsIcEENS_9allocatorIcEEEENS_8functionIFN7android2spINS9_8hardware7IBinderEEEPvEEEEENS_19__map_value_compareIS7_SH_NS_4lessIS7_EELb1EEENS5_ISH_EEE4findIS7_EENS_15__tree_iteratorISH_PNS_11__tree_nodeISH_SE_EElEERKT_
    Address: 0x72095a9c90    Name: _ZTCN7android8hardware8graphics6mapper4V2_010BnHwMapperE0_NS0_9BHwBinderE
    Address: 0x72095a9bb0    Name: _ZTCN7android8hardware8graphics6mapper4V2_010BnHwMapperE0_NS_4hidl4base4V1_08BnHwBaseE
    Address: 0x72095a1308    Name: _ZN7android8hardware8graphics6mapper4V2_010BpHwMapper5debugERKNS0_11hidl_handleERKNS0_8hidl_vecINS0_11hidl_stringEEE
    Address: 0x72095a5e30    Name: _ZNSt3__16__treeINS_12__value_typeINS_12basic_stringIcNS_11char_traitsIcEENS_9allocatorIcEEEENS_8functionIFN7android2spINS9_4hidl4base4V1_05IBaseEEEPvEEEEENS_19__map_value_compareIS7_SJ_NS_4lessIS7_EELb1EEENS5_ISJ_EEE4findIS7_EENS_15__tree_iteratorISJ_PNS_11__tree_nodeISJ_SG_EElEERKT_
    Address: 0x72095a282c    Name: _ZN7android8hardware8graphics6mapper4V2_010BnHwMapper10_hidl_lockEPNS_4hidl4base4V1_08BnHwBaseERKNS0_6ParcelEPSA_NSt3__18functionIFvRSA_EEE
    Address: 0x72095a34a8    Name: _ZN7android8hardware8graphics6mapper4V2_07IMapper17registerAsServiceERKNSt3__112basic_stringIcNS5_11char_traitsIcEENS5_9allocatorIcEEEE
    Address: 0x72095a23b0    Name: _ZThn32_N7android8hardware8graphics6mapper4V2_010BnHwMapperD0Ev
    Address: 0x72095a28ac    Name: _ZN7android8hardware8graphics6mapper4V2_010BnHwMapper15_hidl_lockYCbCrEPNS_4hidl4base4V1_08BnHwBaseERKNS0_6ParcelEPSA_NSt3__18functionIFvRSA_EEE
    Address: 0x72095a14f8    Name: _ZN7android8hardware8graphics6mapper4V2_010BpHwMapper11linkToDeathERKNS_2spINS0_20hidl_death_recipientEEEm
    Address: 0x72095a0228    Name: _ZN7android8hardware8graphics6mapper4V2_010BpHwMapper22_hidl_createDescriptorEPNS0_10IInterfaceEPNS0_7details16HidlInstrumentorERKNS3_7IMapper20BufferDescriptorInfoENSt3__18functionIFvNS3_5ErrorERKNS0_8hidl_vecIjEEEEE
    Address: 0x72095a52bc    Name: _ZNSt3__16__treeINS_12__value_typeINS_12basic_stringIcNS_11char_traitsIcEENS_9allocatorIcEEEENS_8functionIFN7android2spINS9_8hardware7IBinderEEEPvEEEEENS_19__map_value_compareIS7_SH_NS_4lessIS7_EELb1EEENS5_ISH_EEE12__find_equalIS7_EERPNS_16__tree_node_baseISE_EERPNS_15__tree_end_nodeISR_EERKT_
    Address: 0x72095a9988    Name: _ZTCN7android8hardware8graphics6mapper4V2_010BpHwMapperE0_NS_4hidl4base4V1_05IBaseE
    Address: 0x72095a69a4    Name: _ZN7android8hardware8graphics6mapper4V2_022readEmbeddedFromParcelERKNS3_11YCbCrLayoutERKNS0_6ParcelEmm
    Address: 0x72095a17c8    Name: _ZN7android8hardware8graphics6mapper4V2_010BpHwMapper13unlinkToDeathERKNS_2spINS0_20hidl_death_recipientEEE
    Address: 0x72095a0e00    Name: _ZN7android8hardware8graphics6mapper4V2_010BpHwMapper16createDescriptorERKNS3_7IMapper20BufferDescriptorInfoENSt3__18functionIFvNS3_5ErrorERKNS0_8hidl_vecIjEEEEE
    Address: 0x72095a14e8    Name: _ZN7android8hardware8graphics6mapper4V2_010BpHwMapper21setHALInstrumentationEv
    Address: 0x72095a9e48    Name: _ZTCN7android8hardware8graphics6mapper4V2_08BsMapperE0_NS3_7IMapperE
    Address: 0x72095a237c    Name: _ZN7android8hardware8graphics6mapper4V2_010BnHwMapperD0Ev
    Address: 0x72095a5f3c    Name: _ZNSt3__16__treeINS_12__value_typeINS_12basic_stringIcNS_11char_traitsIcEENS_9allocatorIcEEEENS_8functionIFN7android2spINS9_4hidl4base4V1_05IBaseEEEPvEEEEENS_19__map_value_compareIS7_SJ_NS_4lessIS7_EELb1EEENS5_ISJ_EEE5eraseENS_21__tree_const_iteratorISJ_PNS_11__tree_nodeISJ_SG_EElEE
    Address: 0x72095a9d70    Name: _ZTCN7android8hardware8graphics6mapper4V2_010BnHwMapperE0_NS0_7IBinderE
    Address: 0x72095a27e4    Name: _ZN7android8hardware8graphics6mapper4V2_010BnHwMapper16_hidl_freeBufferEPNS_4hidl4base4V1_08BnHwBaseERKNS0_6ParcelEPSA_NSt3__18functionIFvRSA_EEE
    Address: 0x72095a16d4    Name: _ZN7android8hardware8graphics6mapper4V2_010BpHwMapper12getDebugInfoENSt3__18functionIFvRKNS_4hidl4base4V1_09DebugInfoEEEE
    Address: 0x72095a3538    Name: _ZN7android8hardware8graphics6mapper4V2_07IMapper24registerForNotificationsERKNSt3__112basic_stringIcNS5_11char_traitsIcEENS5_9allocatorIcEEEERKNS_2spINS_4hidl7manager4V1_020IServiceNotificationEEE
    Address: 0x72095a3178    Name: _ZN7android8hardware8graphics6mapper4V2_08BsMapper13addOnewayTaskENSt3__18functionIFvvEEE
    Address: 0x72095a242c    Name: _ZN7android8hardware8graphics6mapper4V2_010BnHwMapper22_hidl_createDescriptorEPNS_4hidl4base4V1_08BnHwBaseERKNS0_6ParcelEPSA_NSt3__18functionIFvRSA_EEE
    Address: 0x72095a17b8    Name: _ZN7android8hardware8graphics6mapper4V2_010BpHwMapper21notifySyspropsChangedEv
    Address: 0x72095a1094    Name: _ZN7android8hardware8graphics6mapper4V2_010BpHwMapper9lockYCbCrEPvmRKNS3_7IMapper4RectERKNS0_11hidl_handleENSt3__18functionIFvNS3_5ErrorERKNS3_11YCbCrLayoutEEEE
    Address: 0x72095a5a5c    Name: _ZNSt3__113__tree_removeIPNS_16__tree_node_baseIPvEEEEvT_S5_
    Address: 0x72095a91c8    Name: _ZTTN7android8hardware8graphics6mapper4V2_010BpHwMapperE
    Address: 0x72095a94c0    Name: _ZTVN7android8hardware8graphics6mapper4V2_07IMapperE
    Address: 0x72095a9388    Name: _ZTVN7android8hardware8graphics6mapper4V2_08BsMapperE
    Address: 0x72095a2314    Name: _ZThn32_N7android8hardware8graphics6mapper4V2_010BnHwMapperD1Ev
    Address: 0x72095a23ec    Name: _ZTv0_n24_N7android8hardware8graphics6mapper4V2_010BnHwMapperD0Ev
    Address: 0x72095a69c4    Name: _ZN7android8hardware8graphics6mapper4V2_021writeEmbeddedToParcelERKNS3_11YCbCrLayoutEPNS0_6ParcelEmm
    Address: 0x72095a2e9c    Name: _ZN7android8hardware8graphics6mapper4V2_08BsMapperC2ENS_2spINS3_7IMapperEEE
    Address: 0x72095a53e0    Name: _ZNSt3__127__tree_balance_after_insertIPNS_16__tree_node_baseIPvEEEEvT_S5_
    Address: 0x72095a0ee4    Name: _ZN7android8hardware8graphics6mapper4V2_010BpHwMapper12importBufferERKNS0_11hidl_handleENSt3__18functionIFvNS3_5ErrorEPvEEE
    Address: 0x72095a1320    Name: _ZN7android8hardware8graphics6mapper4V2_010BpHwMapper19interfaceDescriptorENSt3__18functionIFvRKNS0_11hidl_stringEEEE
    Address: 0x72095a8008    Name: _ZN7android8hardware8graphics6mapper4V2_07IMapper10descriptorE
    Address: 0x72095a322c    Name: _ZN7android8hardware8graphics6mapper4V2_07IMapper13tryGetServiceERKNSt3__112basic_stringIcNS5_11char_traitsIcEENS5_9allocatorIcEEEEb
    Address: 0x72095a96e0    Name: _ZTCN7android8hardware8graphics6mapper4V2_010BpHwMapperE0_NS0_11BpInterfaceINS3_7IMapperEEE
    Address: 0x72095a9348    Name: _ZTTN7android8hardware8graphics6mapper4V2_010BnHwMapperE
    Address: 0x72095a9018    Name: _ZTVN7android8hardware8graphics6mapper4V2_010BpHwMapperE
    Address: 0x72095a19d8    Name: _ZN7android8hardware8graphics6mapper4V2_010BnHwMapperC2ERKNS_2spINS3_7IMapperEEE
    Address: 0x72095a22e8    Name: _ZN7android8hardware8graphics6mapper4V2_010BnHwMapperD1Ev
    Address: 0x72095a0c64    Name: _ZN7android8hardware8graphics6mapper4V2_010BpHwMapper12_hidl_unlockEPNS0_10IInterfaceEPNS0_7details16HidlInstrumentorEPvNSt3__18functionIFvNS3_5ErrorERKNS0_11hidl_handleEEEE
    Address: 0x720959fb38    Name: _ZN7android8hardware8graphics6mapper4V2_07IMapper13unlinkToDeathERKNS_2spINS0_20hidl_death_recipientEEE
    Address: 0x72095a6118    Name: _ZNSt3__16vectorIN7android2spINS1_8hardware27hidl_binder_death_recipientEEENS_9allocatorIS5_EEE21__push_back_slow_pathIS5_EEvOT_
    Address: 0x72095a1224    Name: _ZN7android8hardware8graphics6mapper4V2_010BpHwMapper14interfaceChainENSt3__18functionIFvRKNS0_8hidl_vecINS0_11hidl_stringEEEEEE
    Address: 0x72095a0fcc    Name: _ZN7android8hardware8graphics6mapper4V2_010BpHwMapper4lockEPvmRKNS3_7IMapper4RectERKNS0_11hidl_handleENSt3__18functionIFvNS3_5ErrorES5_EEE
    Address: 0x720959fa58    Name: _ZN7android8hardware8graphics6mapper4V2_07IMapper11linkToDeathERKNS_2spINS0_20hidl_death_recipientEEEm
    Address: 0x720959fb58    Name: _ZN7android8hardware8graphics6mapper4V2_07IMapper8castFromERKNS_2spIS4_EEb
    Address: 0x72095a9b08    Name: _ZTCN7android8hardware8graphics6mapper4V2_010BpHwMapperE16_NS0_11BpHwRefBaseE
    Address: 0x72095a95f8    Name: _ZTCN7android8hardware8graphics6mapper4V2_07IMapperE0_NS_4hidl4base4V1_05IBaseE
    Address: 0x72095a9248    Name: _ZTVN7android8hardware8graphics6mapper4V2_010BnHwMapperE

Base: 0x716cede000    Name: android.hardware.graphics.mapper@2.1.so
    Address: 0x7208aad350    Name: _ZN7android8hardware8graphics6mapper4V2_110BnHwMapperD0Ev
    Address: 0x7208aad0ac    Name: _ZN7android8hardware8graphics6mapper4V2_110BnHwMapperD2Ev
    Address: 0x7208aac79c    Name: _ZN7android8hardware8graphics6mapper4V2_110BpHwMapper13unlinkToDeathERKNS_2spINS0_20hidl_death_recipientEEE
    Address: 0x7208aac4bc    Name: _ZN7android8hardware8graphics6mapper4V2_110BpHwMapper21setHALInstrumentationEv
    Address: 0x7208aaaa88    Name: _ZN7android8hardware8graphics6mapper4V2_17IMapper11linkToDeathERKNS_2spINS0_20hidl_death_recipientEEEm
    Address: 0x7208ab4c50    Name: _ZTCN7android8hardware8graphics6mapper4V2_110BpHwMapperE0_NS_4hidl4base4V1_05IBaseE
    Address: 0x7208ab4018    Name: _ZTVN7android8hardware8graphics6mapper4V2_110BpHwMapperE
    Address: 0x7208aad674    Name: _ZN7android8hardware8graphics6mapper4V2_110BnHwMapper12getDebugInfoENSt3__18functionIFvRKNS_4hidl4base4V1_09DebugInfoEEEE
    Address: 0x7208aabd20    Name: _ZN7android8hardware8graphics6mapper4V2_110BpHwMapper10freeBufferEPv
    Address: 0x7208ab4660    Name: _ZTCN7android8hardware8graphics6mapper4V2_17IMapperE0_NS2_4V2_07IMapperE
    Address: 0x7208aad718    Name: _ZN7android8hardware8graphics6mapper4V2_110BnHwMapper10onTransactEjRKNS0_6ParcelEPS5_jNSt3__18functionIFvRS5_EEE
    Address: 0x7208aacd28    Name: _ZN7android8hardware8graphics6mapper4V2_110BnHwMapperC1ERKNS_2spINS3_7IMapperEEE
    Address: 0x7208aac2dc    Name: _ZN7android8hardware8graphics6mapper4V2_110BpHwMapper5debugERKNS0_11hidl_handleERKNS0_8hidl_vecINS0_11hidl_stringEEE
    Address: 0x7208aac6a8    Name: _ZN7android8hardware8graphics6mapper4V2_110BpHwMapper12getDebugInfoENSt3__18functionIFvRKNS_4hidl4base4V1_09DebugInfoEEEE
    Address: 0x7208aae054    Name: _ZN7android8hardware8graphics6mapper4V2_17IMapper13tryGetServiceERKNSt3__112basic_stringIcNS5_11char_traitsIcEENS5_9allocatorIcEEEEb
    Address: 0x7208ab140c    Name: _ZNSt3__16vectorIN7android2spINS1_8hardware27hidl_binder_death_recipientEEENS_9allocatorIS5_EEE21__push_back_slow_pathIS5_EEvOT_
    Address: 0x7208ab4e78    Name: _ZTCN7android8hardware8graphics6mapper4V2_110BnHwMapperE0_NS_4hidl4base4V1_08BnHwBaseE
    Address: 0x7208aad490    Name: _ZN7android8hardware8graphics6mapper4V2_110BnHwMapper26_hidl_createDescriptor_2_1EPNS_4hidl4base4V1_08BnHwBaseERKNS0_6ParcelEPSA_NSt3__18functionIFvRSA_EEE
    Address: 0x7208aad664    Name: _ZN7android8hardware8graphics6mapper4V2_110BnHwMapper4pingEv
    Address: 0x7208aab838    Name: _ZN7android8hardware8graphics6mapper4V2_110BpHwMapper26_hidl_createDescriptor_2_1EPNS0_10IInterfaceEPNS0_7details16HidlInstrumentorERKNS3_7IMapper20BufferDescriptorInfoENSt3__18functionIFvNS2_4V2_05ErrorERKNS0_8hidl_vecIjEEEEE
    Address: 0x7208aabd34    Name: _ZN7android8hardware8graphics6mapper4V2_110BpHwMapper4lockEPvmRKNS2_4V2_07IMapper4RectERKNS0_11hidl_handleENSt3__18functionIFvNS6_5ErrorES5_EEE
    Address: 0x7208aab388    Name: _ZN7android8hardware8graphics6mapper4V2_110BpHwMapperC1ERKNS_2spINS0_7IBinderEEE
    Address: 0x7208aaaf10    Name: _ZN7android8hardware8graphics6mapper4V2_17IMapper8castFromERKNS_2spINS_4hidl4base4V1_05IBaseEEEb
    Address: 0x7208ab4630    Name: _ZTTN7android8hardware8graphics6mapper4V2_17IMapperE
    Address: 0x7208ab4500    Name: _ZTVN7android8hardware8graphics6mapper4V2_17IMapperE
    Address: 0x7208aac78c    Name: _ZN7android8hardware8graphics6mapper4V2_110BpHwMapper21notifySyspropsChangedEv
    Address: 0x7208aab534    Name: _ZN7android8hardware8graphics6mapper4V2_110BpHwMapper24_hidl_validateBufferSizeEPNS0_10IInterfaceEPNS0_7details16HidlInstrumentorEPvRKNS3_7IMapper20BufferDescriptorInfoEj
    Address: 0x7208aaa8c0    Name: _ZN7android8hardware8graphics6mapper4V2_17IMapper12getHashChainENSt3__18functionIFvRKNS0_8hidl_vecINS0_10hidl_arrayIhLm32EJEEEEEEEE
    Address: 0x7208aaa6e4    Name: _ZN7android8hardware8graphics6mapper4V2_17IMapper14interfaceChainENSt3__18functionIFvRKNS0_8hidl_vecINS0_11hidl_stringEEEEEE
    Address: 0x7208ab05b0    Name: _ZNSt3__16__treeINS_12__value_typeINS_12basic_stringIcNS_11char_traitsIcEENS_9allocatorIcEEEENS_8functionIFN7android2spINS9_8hardware7IBinderEEEPvEEEEENS_19__map_value_compareIS7_SH_NS_4lessIS7_EELb1EEENS5_ISH_EEE12__find_equalIS7_EERPNS_16__tree_node_baseISE_EERPNS_15__tree_end_nodeISR_EERKT_
    Address: 0x7208ab4d38    Name: _ZTCN7android8hardware8graphics6mapper4V2_110BpHwMapperE8_NS0_10IInterfaceE
    Address: 0x7208aac114    Name: _ZN7android8hardware8graphics6mapper4V2_110BpHwMapper20createDescriptor_2_1ERKNS3_7IMapper20BufferDescriptorInfoENSt3__18functionIFvNS2_4V2_05ErrorERKNS0_8hidl_vecIjEEEEE
    Address: 0x7208aaaab8    Name: _ZN7android8hardware8graphics6mapper4V2_17IMapper12getDebugInfoENSt3__18functionIFvRKNS_4hidl4base4V1_09DebugInfoEEEE
    Address: 0x7208aadcb0    Name: _ZN7android8hardware8graphics6mapper4V2_18BsMapperC2ENS_2spINS3_7IMapperEEE
    Address: 0x7208ab0964    Name: _ZNSt3__16__treeINS_12__value_typeINS_12basic_stringIcNS_11char_traitsIcEENS_9allocatorIcEEEENS_8functionIFN7android2spINS9_4hidl4base4V1_05IBaseEEEPvEEEEENS_19__map_value_compareIS7_SJ_NS_4lessIS7_EELb1EEENS5_ISJ_EEE12__find_equalIS7_EERPNS_16__tree_node_baseISG_EERPNS_15__tree_end_nodeIST_EERKT_
    Address: 0x7208ab4a08    Name: _ZTCN7android8hardware8graphics6mapper4V2_110BpHwMapperE0_NS3_7IMapperE
    Address: 0x7208aac4cc    Name: _ZN7android8hardware8graphics6mapper4V2_110BpHwMapper11linkToDeathERKNS_2spINS0_20hidl_death_recipientEEEm
    Address: 0x7208aabf5c    Name: _ZN7android8hardware8graphics6mapper4V2_110BpHwMapper6unlockEPvNSt3__18functionIFvNS2_4V2_05ErrorERKNS0_11hidl_handleEEEE
    Address: 0x7208aabe48    Name: _ZN7android8hardware8graphics6mapper4V2_110BpHwMapper9lockYCbCrEPvmRKNS2_4V2_07IMapper4RectERKNS0_11hidl_handleENSt3__18functionIFvNS6_5ErrorERKNS6_11YCbCrLayoutEEEE
    Address: 0x7208ab3008    Name: _ZN7android8hardware8graphics6mapper4V2_17IMapper10descriptorE
    Address: 0x7208aaab68    Name: _ZN7android8hardware8graphics6mapper4V2_17IMapper13unlinkToDeathERKNS_2spINS0_20hidl_death_recipientEEE
    Address: 0x7208aaa82c    Name: _ZN7android8hardware8graphics6mapper4V2_17IMapper19interfaceDescriptorENSt3__18functionIFvRKNS0_11hidl_stringEEEE
    Address: 0x7208aaaa78    Name: _ZN7android8hardware8graphics6mapper4V2_17IMapper21setHALInstrumentationEv
    Address: 0x7208ab41e0    Name: _ZTTN7android8hardware8graphics6mapper4V2_110BpHwMapperE
    Address: 0x7208aaafb4    Name: _ZN7android8hardware7details13castInterfaceINS0_8graphics6mapper4V2_17IMapperENS_4hidl4base4V1_05IBaseENS5_10BpHwMapperEEENS0_6ReturnINS_2spIT_EEEENSD_IT0_EEPKcb
    Address: 0x7208aac9ac    Name: _ZN7android8hardware8graphics6mapper4V2_110BnHwMapperC2ERKNS_2spINS3_7IMapperEEE
    Address: 0x7208aae360    Name: _ZN7android8hardware8graphics6mapper4V2_17IMapper24registerForNotificationsERKNSt3__112basic_stringIcNS5_11char_traitsIcEENS5_9allocatorIcEEEERKNS_2spINS_4hidl7manager4V1_020IServiceNotificationEEE
    Address: 0x7208ab4dd0    Name: _ZTCN7android8hardware8graphics6mapper4V2_110BpHwMapperE16_NS0_11BpHwRefBaseE
    Address: 0x7208aad2e8    Name: _ZThn32_N7android8hardware8graphics6mapper4V2_110BnHwMapperD1Ev
    Address: 0x7208aaaaa8    Name: _ZN7android8hardware8graphics6mapper4V2_17IMapper4pingEv
    Address: 0x7208ab4270    Name: _ZTVN7android8hardware8graphics6mapper4V2_110BnHwMapperE
    Address: 0x7208aad3c0    Name: _ZTv0_n24_N7android8hardware8graphics6mapper4V2_110BnHwMapperD0Ev
    Address: 0x7208aad2bc    Name: _ZN7android8hardware8graphics6mapper4V2_110BnHwMapperD1Ev
    Address: 0x7208aae2c4    Name: _ZN7android8hardware8graphics6mapper4V2_17IMapper10getServiceERKNSt3__112basic_stringIcNS5_11char_traitsIcEENS5_9allocatorIcEEEEb
    Address: 0x7208ab0b74    Name: _ZNSt3__16__treeINS_12__value_typeINS_12basic_stringIcNS_11char_traitsIcEENS_9allocatorIcEEEENS_8functionIFN7android2spINS9_8hardware7IBinderEEEPvEEEEENS_19__map_value_compareIS7_SH_NS_4lessIS7_EELb1EEENS5_ISH_EEE4findIS7_EENS_15__tree_iteratorISH_PNS_11__tree_nodeISH_SE_EElEERKT_
    Address: 0x7208aac3d8    Name: _ZN7android8hardware8graphics6mapper4V2_110BpHwMapper12getHashChainENSt3__18functionIFvRKNS0_8hidl_vecINS0_10hidl_arrayIhLm32EJEEEEEEEE
    Address: 0x7208aac2f4    Name: _ZN7android8hardware8graphics6mapper4V2_110BpHwMapper19interfaceDescriptorENSt3__18functionIFvRKNS0_11hidl_stringEEEE
    Address: 0x7208aac698    Name: _ZN7android8hardware8graphics6mapper4V2_110BpHwMapper4pingEv
    Address: 0x7208aade3c    Name: _ZN7android8hardware8graphics6mapper4V2_18BsMapperC1ENS_2spINS3_7IMapperEEE
    Address: 0x7208ab1124    Name: _ZNSt3__16__treeINS_12__value_typeINS_12basic_stringIcNS_11char_traitsIcEENS_9allocatorIcEEEENS_8functionIFN7android2spINS9_4hidl4base4V1_05IBaseEEEPvEEEEENS_19__map_value_compareIS7_SJ_NS_4lessIS7_EELb1EEENS5_ISJ_EEE4findIS7_EENS_15__tree_iteratorISJ_PNS_11__tree_nodeISJ_SG_EElEERKT_
    Address: 0x7208ab1230    Name: _ZNSt3__16__treeINS_12__value_typeINS_12basic_stringIcNS_11char_traitsIcEENS_9allocatorIcEEEENS_8functionIFN7android2spINS9_4hidl4base4V1_05IBaseEEEPvEEEEENS_19__map_value_compareIS7_SJ_NS_4lessIS7_EELb1EEENS5_ISJ_EEE5eraseENS_21__tree_const_iteratorISJ_PNS_11__tree_nodeISJ_SG_EElEE
    Address: 0x7208aac04c    Name: _ZN7android8hardware8graphics6mapper4V2_110BpHwMapper16getTransportSizeEPvNSt3__18functionIFvNS2_4V2_05ErrorEjjEEE
    Address: 0x7208aac1f8    Name: _ZN7android8hardware8graphics6mapper4V2_110BpHwMapper14interfaceChainENSt3__18functionIFvRKNS0_8hidl_vecINS0_11hidl_stringEEEEEE
    Address: 0x7208aaab88    Name: _ZN7android8hardware8graphics6mapper4V2_17IMapper8castFromERKNS_2spIS4_EEb
    Address: 0x7208aab1d8    Name: _ZN7android8hardware8graphics6mapper4V2_110BpHwMapperC2ERKNS_2spINS0_7IBinderEEE
    Address: 0x7208ab43b0    Name: _ZTVN7android8hardware8graphics6mapper4V2_18BsMapperE
    Address: 0x7208aaa81c    Name: _ZN7android8hardware8graphics6mapper4V2_17IMapper5debugERKNS0_11hidl_handleERKNS0_8hidl_vecINS0_11hidl_stringEEE
    Address: 0x7208aad400    Name: _ZN7android8hardware8graphics6mapper4V2_110BnHwMapper24_hidl_validateBufferSizeEPNS_4hidl4base4V1_08BnHwBaseERKNS0_6ParcelEPSA_NSt3__18functionIFvRSA_EEE
    Address: 0x7208aac048    Name: _ZN7android8hardware8graphics6mapper4V2_110BpHwMapper18validateBufferSizeEPvRKNS3_7IMapper20BufferDescriptorInfoEj
    Address: 0x7208aaab3c    Name: _ZN7android8hardware8graphics6mapper4V2_17IMapper21notifySyspropsChangedEv
    Address: 0x7208aaac48    Name: _ZN7android8hardware8graphics6mapper4V2_17IMapper8castFromERKNS_2spINS2_4V2_07IMapperEEEb
    Address: 0x7208aadfa0    Name: _ZN7android8hardware8graphics6mapper4V2_18BsMapper13addOnewayTaskENSt3__18functionIFvvEEE
    Address: 0x7208ab0c80    Name: _ZNSt3__16__treeINS_12__value_typeINS_12basic_stringIcNS_11char_traitsIcEENS_9allocatorIcEEEENS_8functionIFN7android2spINS9_8hardware7IBinderEEEPvEEEEENS_19__map_value_compareIS7_SH_NS_4lessIS7_EELb1EEENS5_ISH_EEE5eraseENS_21__tree_const_iteratorISH_PNS_11__tree_nodeISH_SE_EElEE
    Address: 0x7208aaacec    Name: _ZN7android8hardware7details13castInterfaceINS0_8graphics6mapper4V2_17IMapperENS4_4V2_07IMapperENS5_10BpHwMapperEEENS0_6ReturnINS_2spIT_EEEENSB_IT0_EEPKcb
    Address: 0x7208aae060    Name: _ZN7android8hardware7details18getServiceInternalINS0_8graphics6mapper4V2_110BpHwMapperENS5_7IMapperEvvEENS_2spIT0_EERKNSt3__112basic_stringIcNSB_11char_traitsIcEENSB_9allocatorIcEEEEbb
    Address: 0x7208aabc34    Name: _ZN7android8hardware8graphics6mapper4V2_110BpHwMapper12importBufferERKNS0_11hidl_handleENSt3__18functionIFvNS2_4V2_05ErrorEPvEEE
    Address: 0x7208ab06d4    Name: _ZNSt3__127__tree_balance_after_insertIPNS_16__tree_node_baseIPvEEEEvT_S5_
    Address: 0x7208ab5110    Name: _ZTCN7android8hardware8graphics6mapper4V2_18BsMapperE0_NS3_7IMapperE
    Address: 0x7208ab4370    Name: _ZTTN7android8hardware8graphics6mapper4V2_110BnHwMapperE
    Address: 0x7208aabb48    Name: _ZN7android8hardware8graphics6mapper4V2_110BpHwMapper16createDescriptorERKNS2_4V2_07IMapper20BufferDescriptorInfoENSt3__18functionIFvNS5_5ErrorERKNS0_8hidl_vecIjEEEEE
    Address: 0x7208aab6ac    Name: _ZN7android8hardware8graphics6mapper4V2_110BpHwMapper22_hidl_getTransportSizeEPNS0_10IInterfaceEPNS0_7details16HidlInstrumentorEPvNSt3__18functionIFvNS2_4V2_05ErrorEjjEEE
    Address: 0x7208ab5038    Name: _ZTCN7android8hardware8graphics6mapper4V2_110BnHwMapperE0_NS0_7IBinderE
    Address: 0x7208ab4f58    Name: _ZTCN7android8hardware8graphics6mapper4V2_110BnHwMapperE0_NS0_9BHwBinderE
    Address: 0x7208ab4860    Name: _ZTCN7android8hardware8graphics6mapper4V2_110BpHwMapperE0_NS0_11BpInterfaceINS3_7IMapperEEE
    Address: 0x7208ab4b38    Name: _ZTCN7android8hardware8graphics6mapper4V2_110BpHwMapperE0_NS2_4V2_07IMapperE
    Address: 0x7208aad448    Name: _ZN7android8hardware8graphics6mapper4V2_110BnHwMapper22_hidl_getTransportSizeEPNS_4hidl4base4V1_08BnHwBaseERKNS0_6ParcelEPSA_NSt3__18functionIFvRSA_EEE
    Address: 0x7208ab0d50    Name: _ZNSt3__113__tree_removeIPNS_16__tree_node_baseIPvEEEEvT_S5_
    Address: 0x7208ab4778    Name: _ZTCN7android8hardware8graphics6mapper4V2_17IMapperE0_NS_4hidl4base4V1_05IBaseE
    Address: 0x7208aad384    Name: _ZThn32_N7android8hardware8graphics6mapper4V2_110BnHwMapperD0Ev
    Address: 0x7208aae2d0    Name: _ZN7android8hardware8graphics6mapper4V2_17IMapper17registerAsServiceERKNSt3__112basic_stringIcNS5_11char_traitsIcEENS5_9allocatorIcEEEE
    Address: 0x7208aad318    Name: _ZTv0_n24_N7android8hardware8graphics6mapper4V2_110BnHwMapperD1Ev

Base: 0x711fb57000    Name: base.odex
    Address: 0x711fb58000    Name: oatdata
    Address: 0x711fb93000    Name: oatexec
    Address: 0x711fb9bd68    Name: oatlastword
    Address: 0x711fb9c000    Name: oatdex
    Address: 0x71206fc0b0    Name: oatdexlastword

Base: 0x7174f52000    Name: libvlc.so
    Address: 0x7174f525cc    Name: mtk_convert
    Address: 0x7174f5283c    Name: qcom_convert

Base: 0x711d107000    Name: libwhatsapp.so
    Address: 0x711d14a670    Name: Java_com_whatsapp_voipcalling_Voip_getVoipParamForCall
    Address: 0x711d14b488    Name: Java_com_whatsapp_voipcalling_GlVideoRenderer_init
    Address: 0x711d147778    Name: Java_com_whatsapp_voipcalling_Voip_notifyAudioRouteChange
    Address: 0x711d144164    Name: Java_com_whatsapp_voipcalling_Voip_nativeRegisterCryptoCallback
    Address: 0x711d148af8    Name: Java_com_whatsapp_voipcalling_Voip_setBatteryState
    Address: 0x711d14e28c    Name: Java_com_whatsapp_util_OpusPlayer_stop
    Address: 0x711d14d2ac    Name: Java_com_whatsapp_Mp4Ops_mp4removeDolbyEAC3Track
    Address: 0x711d141494    Name: Java_com_whatsapp_util_WhatsAppLibLoader_testLibraryUsable
    Address: 0x711d14b590    Name: Java_com_whatsapp_voipcalling_GlVideoRenderer_renderOesTexture
    Address: 0x711d14a59c    Name: Java_com_whatsapp_voipcalling_Voip_getVoipParam
    Address: 0x711d148298    Name: Java_com_whatsapp_voipcalling_Voip_requestVideoUpgrade
    Address: 0x711d14ff28    Name: Java_com_whatsapp_stickers_WebpUtils_getFirstWebpThumbnailMinimumFileLength
    Address: 0x711d14ebd4    Name: Java_com_whatsapp_util_StatResult_statOpenFile
    Address: 0x711d14f0e8    Name: Java_com_whatsapp_VideoFrameConverter_release
    Address: 0x711d1449b4    Name: Java_com_whatsapp_voipcalling_Voip_nativeRegisterEventCallback
    Address: 0x711d1473cc    Name: Java_com_whatsapp_voipcalling_Voip_rejectPendingCall
    Address: 0x711d14fd08    Name: Java_com_whatsapp_stickers_WebpUtils_fetchWebpMetadata
    Address: 0x711d146de0    Name: Java_com_whatsapp_voipcalling_Voip_resendOfferOnDecryptionFailure
    Address: 0x711d14b614    Name: Java_com_whatsapp_voipcalling_GlVideoRenderer_renderTexture
    Address: 0x711d14a328    Name: Java_com_whatsapp_voipcalling_Voip_nativeHandleIncomingSignalingXmppReceipt
    Address: 0x711d14230c    Name: Java_com_whatsapp_GifHelper_hasGifTag
    Address: 0x711d14b744    Name: Java_com_whatsapp_voipcalling_GlVideoRenderer_setWindow
    Address: 0x711d14e1f8    Name: Java_com_whatsapp_util_OpusPlayer_start
    Address: 0x711d147920    Name: Java_com_whatsapp_voipcalling_Voip_onCallInterrupted
    Address: 0x711d157a14    Name: Java_com_whatsapp_SqliteShell_executeMetaCommand
    Address: 0x711d147dac    Name: Java_com_whatsapp_voipcalling_Voip_startAllVideoRenderStreams
    Address: 0x711d1476ec    Name: Java_com_whatsapp_voipcalling_Voip_muteCall
    Address: 0x711d147304    Name: Java_com_whatsapp_voipcalling_Voip_endCallAndAcceptPendingCall
    Address: 0x711d1500e4    Name: Java_com_whatsapp_util_crash_SigquitBasedANRDetector_startDetector
    Address: 0x711d14b50c    Name: Java_com_whatsapp_voipcalling_GlVideoRenderer_release
    Address: 0x711d14e818    Name: Java_com_whatsapp_util_OpusRecorder_freeNative
    Address: 0x711d147910    Name: Java_com_whatsapp_voipcalling_Voip_notifyLostOfAlternativeNetwork
    Address: 0x711d1483fc    Name: Java_com_whatsapp_voipcalling_Voip_getRawPeerJid
    Address: 0x711d14a418    Name: Java_com_whatsapp_voipcalling_Voip_isRxNetworkConditionerOn
    Address: 0x711d147780    Name: Java_com_whatsapp_voipcalling_Voip_startTestNetworkConditionWithAlternativeSocket
    Address: 0x711d14dbe8    Name: Java_com_whatsapp_util_NativeUtils_getFileDescriptorForSocket
    Address: 0x711d14e5cc    Name: Java_com_whatsapp_util_OpusRecorder_allocateNative
    Address: 0x711d1482a8    Name: Java_com_whatsapp_voipcalling_Voip_rejectVideoUpgrade
    Address: 0x711d146f9c    Name: Java_com_whatsapp_voipcalling_Voip_rejectCall
    Address: 0x711d14f2dc    Name: Java_com_whatsapp_VideoFrameConverter_convertAndroid420toNV21
    Address: 0x711d14e320    Name: Java_com_whatsapp_util_OpusPlayer_pause
    Address: 0x711d14c97c    Name: Java_com_whatsapp_Mp4Ops_mp4streamcheck
    Address: 0x711d1500fc    Name: Java_com_whatsapp_util_crash_SigquitBasedANRDetector_stopDetector
    Address: 0x711d14fc08    Name: Java_com_whatsapp_stickers_WebpUtils_verifyWebpFileIntegrity
    Address: 0x711d147ef4    Name: Java_com_whatsapp_voipcalling_Voip_startVideoRenderStream
    Address: 0x711d141de8    Name: Java_com_whatsapp_filter_FilterUtils_applyFilter
    Address: 0x711d141530    Name: Java_com_whatsapp_util_WhatsAppLibLoader_getJNICodeVersion
    Address: 0x711d149938    Name: Java_com_whatsapp_voipcalling_Voip_nativeParseXmppOffer
    Address: 0x711d14e4e8    Name: Java_com_whatsapp_util_OpusPlayer_getCurrentPosition
    Address: 0x711d148358    Name: Java_com_whatsapp_voipcalling_Voip_getCurrentCallState
    Address: 0x711d14cbc8    Name: Java_com_whatsapp_Mp4Ops_mp4check
    Address: 0x711d1482b0    Name: Java_com_whatsapp_voipcalling_Voip_turnCameraOff
    Address: 0x711d14da98    Name: Java_com_whatsapp_util_NativeUtils_getFileDescriptorForFileDescriptor
    Address: 0x711d14a498    Name: Java_com_whatsapp_voipcalling_Voip_getCurrentRxNetworkConditionerParameters
    Address: 0x711d146f20    Name: Java_com_whatsapp_voipcalling_Voip_endCall
    Address: 0x711d147914    Name: Java_com_whatsapp_voipcalling_Voip_updateNetworkMedium
    Address: 0x711d146074    Name: Java_com_whatsapp_voipcalling_Voip_nativeUnregisterMultiNetworkCallback
    Address: 0x711d147b70    Name: Java_com_whatsapp_voipcalling_Voip_setVideoDisplayPort
    Address: 0x711d141440    Name: JNI_OnUnload
    Address: 0x711d148294    Name: Java_com_whatsapp_voipcalling_Voip_refreshVideoDevice
    Address: 0x711d1484ec    Name: Java_com_whatsapp_voipcalling_Voip_getCallInfo
    Address: 0x711d1482a4    Name: Java_com_whatsapp_voipcalling_Voip_acceptVideoUpgrade
    Address: 0x711d14a42c    Name: Java_com_whatsapp_voipcalling_Voip_getCurrentTxNetworkConditionerParameters
    Address: 0x711d148b84    Name: Java_com_whatsapp_voipcalling_Voip_switchCamera
    Address: 0x711d142094    Name: Java_com_whatsapp_filter_FilterUtils_applyFilterIntoBuffer
    Address: 0x711d1482b8    Name: Java_com_whatsapp_voipcalling_Voip_videoOrientationChanged
    Address: 0x711d148474    Name: Java_com_whatsapp_voipcalling_Voip_getCurrentCallId
    Address: 0x711d14e5a8    Name: Java_com_whatsapp_util_OpusPlayer_isPlaying
    Address: 0x711d145ce0    Name: Java_com_whatsapp_voipcalling_Voip_nativeRegisterMultiNetworkCallback
    Address: 0x711d14e3b4    Name: Java_com_whatsapp_util_OpusPlayer_resume
    Address: 0x711d145f24    Name: Java_com_whatsapp_voipcalling_Voip_nativeUnregisterCryptoCallback
    Address: 0x711d147908    Name: Java_com_whatsapp_voipcalling_Voip_notifyFailureToCreateAlternativeSocket
    Address: 0x711d141d5c    Name: Java_com_whatsapp_breakpad_BreakpadManager_crashThisProcess
    Address: 0x711d14a404    Name: Java_com_whatsapp_voipcalling_Voip_isTxNetworkConditionerOn
    Address: 0x711d14b7cc    Name: Java_com_whatsapp_voipcalling_GlVideoRenderer_setVideoSize
    Address: 0x711d14180c    Name: Java_com_whatsapp_breakpad_BreakpadManager_setUpBreakpad
    Address: 0x711d14f91c    Name: Java_com_whatsapp_VideoFrameConverter_scalePlane
    Address: 0x711d147730    Name: Java_com_whatsapp_voipcalling_Voip_adjustAudioLevel
    Address: 0x711d14829c    Name: Java_com_whatsapp_voipcalling_Voip_cancelVideoUpgrade
    Address: 0x711d1479cc    Name: Java_com_whatsapp_voipcalling_Voip_dumpLastVideoFrame
    Address: 0x711d14e578    Name: Java_com_whatsapp_util_OpusPlayer_getLength
    Address: 0x711d14f634    Name: Java_com_whatsapp_VideoFrameConverter_convertAndroid420toI420
    Address: 0x711d14fe0c    Name: Java_com_whatsapp_stickers_WebpUtils_insertWebpMetadata
    Address: 0x711d146550    Name: Java_com_whatsapp_voipcalling_Voip_startGroupCall
    Address: 0x711d14b88c    Name: Java_com_whatsapp_media_transcode_Mozjpeg_compressToFile
    Address: 0x711d1413bc    Name: JNI_OnLoad
    Address: 0x711d146cb8    Name: Java_com_whatsapp_voipcalling_Voip_sendRekeyRequest
    Address: 0x711d147074    Name: Java_com_whatsapp_voipcalling_Voip_rejectCallWithoutCallContext
    Address: 0x711d14682c    Name: Java_com_whatsapp_voipcalling_Voip_inviteToGroupCall
    Address: 0x711d14a034    Name: Java_com_whatsapp_voipcalling_Voip_nativeHandleIncomingSignalingXmppAck
    Address: 0x711d14eed0    Name: Java_com_whatsapp_VideoFrameConverter_setLogFilePath
    Address: 0x711d14d624    Name: Java_com_whatsapp_Mp4Ops_removeAudioTracks
    Address: 0x711d149850    Name: Java_com_whatsapp_voipcalling_Voip_nativeHandleIncomingXmppOffer
    Address: 0x711d145fc8    Name: Java_com_whatsapp_voipcalling_Voip_nativeUnregisterEventCallback
    Address: 0x711d147e50    Name: Java_com_whatsapp_voipcalling_Voip_stopAllVideoRenderStreams
    Address: 0x711d1460c4    Name: Java_com_whatsapp_voipcalling_Voip_startCall
    Address: 0x711d14e164    Name: Java_com_whatsapp_util_OpusPlayer_prepare
    Address: 0x711d14601c    Name: Java_com_whatsapp_voipcalling_Voip_nativeUnregisterSignalingXmppCallback
    Address: 0x711d14f120    Name: Java_com_whatsapp_VideoFrameConverter_configure
    Address: 0x711d147494    Name: Java_com_whatsapp_voipcalling_Voip_holdCallAndSwitchToCall
    Address: 0x711d14f0a8    Name: Java_com_whatsapp_VideoFrameConverter_create
    Address: 0x711d14223c    Name: Java_com_whatsapp_filter_FilterUtils_blurNative
    Address: 0x711d14a504    Name: Java_com_whatsapp_voipcalling_Voip_clearVoipParam
    Address: 0x711d14dd28    Name: Java_com_whatsapp_util_OpusPlayer_allocateNative
    Address: 0x711d145b44    Name: Java_com_whatsapp_voipcalling_Voip_nativeRegisterSignalingXmppCallback
    Address: 0x711d14ea18    Name: Java_com_whatsapp_util_OpusRecorder_prepare
    Address: 0x711d148bc4    Name: Java_com_whatsapp_voipcalling_Voip_nativeHandleWebClientMessage
    Address: 0x711d1481f0    Name: Java_com_whatsapp_voipcalling_Voip_stopVideoCaptureStream
    Address: 0x711d146f60    Name: Java_com_whatsapp_voipcalling_Voip_acceptCall
    Address: 0x711d14755c    Name: Java_com_whatsapp_voipcalling_Voip_endHeldCall
    Address: 0x711d14c5f4    Name: Java_com_whatsapp_Mp4Ops_mp4mux
    Address: 0x711d14814c    Name: Java_com_whatsapp_voipcalling_Voip_startVideoCaptureStream
    Address: 0x711d14b848    Name: Java_com_whatsapp_voipcalling_GlVideoRenderer_setScaleType
    Address: 0x711d14db08    Name: Java_com_whatsapp_util_NativeUtils_getBytesInSocketOutputQueue
    Address: 0x711d14a7d4    Name: Java_com_whatsapp_voipcalling_Voip_getVoipParamElemCount
    Address: 0x711d14d7cc    Name: Java_com_whatsapp_util_NativeUtils_nativeInit
    Address: 0x711d14ce08    Name: Java_com_whatsapp_Mp4Ops_mp4checkAndRepair
    Address: 0x711d14b454    Name: Java_com_whatsapp_voipcalling_GlVideoRenderer_initNative
    Address: 0x711d148020    Name: Java_com_whatsapp_voipcalling_Voip_stopVideoRenderStream
    Address: 0x711d148b0c    Name: Java_com_whatsapp_voipcalling_Voip_getCameraCount
    Address: 0x711d147cb0    Name: Java_com_whatsapp_voipcalling_Voip_setVideoPreviewPort
    Address: 0x711d147844    Name: Java_com_whatsapp_voipcalling_Voip_switchNetworkWithAlternativeSocket
    Address: 0x711d14f218    Name: Java_com_whatsapp_VideoFrameConverter_setOverlay
    Address: 0x711d1500d4    Name: Java_com_whatsapp_util_crash_SigquitBasedANRDetector_init
    Address: 0x711d14b698    Name: Java_com_whatsapp_voipcalling_GlVideoRenderer_renderNativeFrame
    Address: 0x711d14eb40    Name: Java_com_whatsapp_util_OpusRecorder_stop
    Address: 0x711d14e448    Name: Java_com_whatsapp_util_OpusPlayer_seek
    Address: 0x711d1482b4    Name: Java_com_whatsapp_voipcalling_Voip_turnCameraOn
    Address: 0x711d14eaac    Name: Java_com_whatsapp_util_OpusRecorder_start
    Address: 0x711d14f27c    Name: Java_com_whatsapp_VideoFrameConverter_convertFrame
    Address: 0x711d14691c    Name: Java_com_whatsapp_voipcalling_Voip_cancelInviteToGroupCall
    Address: 0x711d147624    Name: Java_com_whatsapp_voipcalling_Voip_resumeHeldCall
    Address: 0x711d14ee1c    Name: Java_com_whatsapp_util_StatResult_lstatOpenFile
    Address: 0x711d1423ac    Name: Java_com_whatsapp_GifHelper_applyGifTag
    Address: 0x711d14ffd4    Name: Java_com_whatsapp_stickers_WebpUtils_createFirstThumbnail
    Address: 0x711d14d7c4    Name: Java_com_whatsapp_NativeMediaHandler_initFileHandlingCallbacks
    Address: 0x711d1495fc    Name: Java_com_whatsapp_voipcalling_Voip_nativeHandleIncomingSignalingXmpp
    Address: 0x711d148b00    Name: Java_com_whatsapp_voipcalling_Voip_setScreenSize
    Address: 0x711d14d130    Name: Java_com_whatsapp_Mp4Ops_mp4forensic
    Address: 0x711d14df5c    Name: Java_com_whatsapp_util_OpusPlayer_freeNative

Base: 0x7174e4e000    Name: libcurve25519.so
    Address: 0x7174e58138    Name: crypto_sign_ed25519_ref10_ge_p3_tobytes
    Address: 0x7174e5f908    Name: crypto_sign_ed25519_ref10_fe_cmov
    Address: 0x7174e51974    Name: curve25519_donna
    Address: 0x7174e5f974    Name: crypto_sign_ed25519_ref10_fe_copy
    Address: 0x7174e56840    Name: crypto_sign_ed25519_ref10_fe_0
    Address: 0x7174e56850    Name: crypto_sign_ed25519_ref10_fe_1
    Address: 0x7174e5519c    Name: sha512_fast_test
    Address: 0x7174e57194    Name: crypto_sign_ed25519_ref10_fe_sq
    Address: 0x7174e601bc    Name: crypto_sign_ed25519_ref10_ge_p3_0
    Address: 0x7174e5fe3c    Name: crypto_sign_ed25519_ref10_fe_sq2
    Address: 0x7174e55a38    Name: curvesigs_fast_test
    Address: 0x7174e5a384    Name: fe_isequal
    Address: 0x7174e57d5c    Name: crypto_sign_ed25519_ref10_ge_msub
    Address: 0x7174e596fc    Name: crypto_sign_ed25519_ref10_sc_reduce
    Address: 0x7174e54abc    Name: xed25519_verify
    Address: 0x7174e5a45c    Name: fe_mont_rhs
    Address: 0x7174e54d24    Name: generalized_xveddsa_25519_sign
    Address: 0x7174e5b410    Name: generalized_solve_commitment
    Address: 0x7174e58100    Name: crypto_sign_ed25519_ref10_ge_p3_to_p2
    Address: 0x7174e5b8ac    Name: buffer_add
    Address: 0x7174e51338    Name: Java_org_whispersystems_curve25519_NativeCurve25519Provider_calculateSignature
    Address: 0x7174e5fa40    Name: crypto_sign_ed25519_ref10_fe_neg
    Address: 0x7174e51160    Name: Java_org_whispersystems_curve25519_NativeCurve25519Provider_generatePublicKey
    Address: 0x7174e6021c    Name: fe_sqrt
    Address: 0x7174e5a2ec    Name: hash_to_point
    Address: 0x7174e5809c    Name: crypto_sign_ed25519_ref10_ge_p3_to_cached
    Address: 0x7174e517a0    Name: Java_org_whispersystems_curve25519_NativeCurve25519Provider_verifyVrfSignature
    Address: 0x7174e6009c    Name: crypto_sign_ed25519_ref10_ge_add
    Address: 0x7174e568ac    Name: crypto_sign_ed25519_ref10_fe_frombytes
    Address: 0x7174e515f4    Name: Java_org_whispersystems_curve25519_NativeCurve25519Provider_calculateVrfSignature
    Address: 0x7174e57f5c    Name: crypto_sign_ed25519_ref10_ge_p2_dbl
    Address: 0x7174e5881c    Name: crypto_sign_ed25519_ref10_sc_muladd
    Address: 0x7174e55e10    Name: generalized_xeddsa_fast_test
    Address: 0x7174e5af30    Name: ge_p3_add
    Address: 0x7174e5a6e4    Name: ge_scalarmult
    Address: 0x7174e5a514    Name: ge_isneutral
    Address: 0x7174e5ae30    Name: sc_clamp
    Address: 0x7174e54c10    Name: generalized_xeddsa_25519_sign
    Address: 0x7174e5ad3c    Name: ge_scalarmult_cofactor
    Address: 0x7174e5bd4c    Name: generalized_veddsa_25519_sign
    Address: 0x7174e5c130    Name: generalized_veddsa_25519_verify
    Address: 0x7174e5574c    Name: elligator_fast_test
    Address: 0x7174e5b9d4    Name: labelset_new
    Address: 0x7174e5c4f0    Name: sc_isreduced
    Address: 0x7174e5bd40    Name: labelset_is_empty
    Address: 0x7174e5b930    Name: buffer_pad
    Address: 0x7174e5444c    Name: curve25519_sign
    Address: 0x7174e573cc    Name: crypto_sign_ed25519_ref10_fe_sub
    Address: 0x7174e58660    Name: crypto_sign_ed25519_ref10_ge_sub
    Address: 0x7174e54efc    Name: generalized_xveddsa_25519_verify
    Address: 0x7174e5a3ec    Name: fe_isreduced
    Address: 0x7174e56230    Name: generalized_xveddsa_fast_test
    Address: 0x7174e56a84    Name: crypto_sign_ed25519_ref10_fe_invert
    Address: 0x7174e514dc    Name: Java_org_whispersystems_curve25519_NativeCurve25519Provider_verifySignature
    Address: 0x7174e58044    Name: crypto_sign_ed25519_ref10_ge_p3_dbl
    Address: 0x7174e5adcc    Name: curve25519_keygen
    Address: 0x7174e552c4    Name: strict_fast_test
    Address: 0x7174e5bccc    Name: labelset_validate
    Address: 0x7174e51954    Name: Java_org_whispersystems_curve25519_NativeCurve25519ProviderTest_internalTest
    Address: 0x7174e5194c    Name: Java_org_whispersystems_curve25519_NativeCurve25519Provider_smokeCheck
    Address: 0x7174e57c4c    Name: crypto_sign_ed25519_ref10_ge_madd
    Address: 0x7174e57408    Name: crypto_sign_ed25519_ref10_fe_tobytes
    Address: 0x7174e60c30    Name: B_bytes
    Address: 0x7174e5468c    Name: fe_montx_to_edy
    Address: 0x7174e54720    Name: crypto_sign_open_modified
    Address: 0x7174e54bb8    Name: zeroize_stack
    Address: 0x7174e5c48c    Name: point_isreduced
    Address: 0x7174e5a588    Name: ge_montx_to_p3
    Address: 0x7174e5b6fc    Name: generalized_eddsa_25519_verify
    Address: 0x7174e5a6a0    Name: ge_neg
    Address: 0x7174e5a194    Name: elligator
    Address: 0x7174e5ae50    Name: sc_cmov
    Address: 0x7174e57ec0    Name: crypto_sign_ed25519_ref10_ge_p1p1_to_p3
    Address: 0x7174e5b510    Name: generalized_eddsa_25519_sign
    Address: 0x7174e5afa4    Name: generalized_commit
    Address: 0x7174e54ba4    Name: zeroize
    Address: 0x7174e54554    Name: curve25519_verify
    Address: 0x7174e5bb7c    Name: labelset_add
    Address: 0x7174e57f30    Name: crypto_sign_ed25519_ref10_ge_p2_0
    Address: 0x7174e57e6c    Name: crypto_sign_ed25519_ref10_ge_p1p1_to_p2
    Address: 0x7174e56790    Name: all_fast_tests
    Address: 0x7174e5fa70    Name: crypto_sign_ed25519_ref10_fe_pow22523
    Address: 0x7174e57a84    Name: crypto_sign_ed25519_ref10_ge_frombytes_negate_vartime
    Address: 0x7174e56870    Name: crypto_sign_ed25519_ref10_fe_add
    Address: 0x7174e5b3e8    Name: generalized_prove
    Address: 0x7174e5f988    Name: crypto_sign_ed25519_ref10_fe_isnonzero
    Address: 0x7174e581d4    Name: crypto_sign_ed25519_ref10_ge_scalarmult_base
    Address: 0x7174e58780    Name: crypto_sign_ed25519_ref10_ge_tobytes
    Address: 0x7174e510ec    Name: Java_org_whispersystems_curve25519_NativeCurve25519Provider_generatePrivateKey
    Address: 0x7174e54fc8    Name: crypto_hash_sha512
    Address: 0x7174e575b4    Name: crypto_sign_ed25519_ref10_ge_double_scalarmult_vartime
    Address: 0x7174e5a0f8    Name: legendre_is_nonsquare
    Address: 0x7174e601f0    Name: crypto_sign_ed25519_ref10_ge_precomp_0
    Address: 0x7174e55bf8    Name: xeddsa_fast_test
    Address: 0x7174e56e74    Name: crypto_sign_ed25519_ref10_fe_mul
    Address: 0x7174e54974    Name: xed25519_sign
    Address: 0x7174e5f9e8    Name: crypto_sign_ed25519_ref10_fe_isnegative
    Address: 0x7174e5b1f0    Name: generalized_challenge
    Address: 0x7174e5542c    Name: ge_fast_test
    Address: 0x7174e54e38    Name: generalized_xeddsa_25519_verify
    Address: 0x7174e5aecc    Name: sc_neg
    Address: 0x7174e5484c    Name: crypto_sign_modified
    Address: 0x7174e602dc    Name: ge_p3_to_montx
    Address: 0x7174e59e84    Name: crypto_verify_32_ref
    Address: 0x7174e5122c    Name: Java_org_whispersystems_curve25519_NativeCurve25519Provider_calculateAgreement
    Address: 0x7174e5c568    Name: crypto_hashblocks_sha512

Base: 0x711aeac000    Name: libcodec2.so
    Address: 0x711aeb605c    Name: postfilter
    Address: 0x711aeb67c8    Name: dft_speech
    Address: 0x711aebdaa0    Name: codec2_fft_inplace
    Address: 0x711aefc8e8    Name: mel_cb
    Address: 0x711aec0f54    Name: interp_Wo_v
    Address: 0x711aefd1a4    Name: bpfb
    Address: 0x711aeb03c0    Name: codec2_decode_wb
    Address: 0x711aec2ed8    Name: quantise
    Address: 0x711aebdb30    Name: kiss_fft_alloc
    Address: 0x711aec6470    Name: decode_Wo
    Address: 0x711aec6ec4    Name: encode_mels_scalar
    Address: 0x711aeb8f50    Name: codec2_encode_1200
    Address: 0x711aebd6f4    Name: codec2_get_energy
    Address: 0x711aec2ea4    Name: lspmelvq_cb_bits
    Address: 0x711aec8020    Name: compute_weights2
    Address: 0x711aebefec    Name: interp_Wo
    Address: 0x711aeb4e98    Name: find_aks
    Address: 0x711aeb6b8c    Name: hs_pitch_refinement
    Address: 0x711aec6a70    Name: encode_lsps_scalar
    Address: 0x711aeb12fc    Name: mean_std_diff_de
    Address: 0x711aebc094    Name: codec2_decode_700
    Address: 0x711aebd2b0    Name: synthesise_one_frame
    Address: 0x711aeb51ac    Name: weight
    Address: 0x711aebda9c    Name: codec2_fftr_free
    Address: 0x711aeb3570    Name: setup_map
    Address: 0x711aeb893c    Name: codec2_encode_1400
    Address: 0x711aeba0d4    Name: codec2_decode_3200
    Address: 0x711aeb7adc    Name: codec2_create
    Address: 0x711aebe8e4    Name: kiss_fftr_alloc
    Address: 0x711aec702c    Name: encode_lsps_vq
    Address: 0x711aeb8104    Name: codec2_encode_3200
    Address: 0x711aebaee8    Name: codec2_decode_1400
    Address: 0x711aefc780    Name: ge_cb
    Address: 0x711aec2e8c    Name: mel_bits
    Address: 0x711aebfea0    Name: ftomel
    Address: 0x711aec1444    Name: determine_phase
    Address: 0x711aeb0528    Name: correct_rate_K_vec
    Address: 0x711aec7fe0    Name: decode_energy
    Address: 0x711aec7c54    Name: locate_lsps_jnd_steps
    Address: 0x711aebf258    Name: lpc_to_lsp
    Address: 0x711aec2b08    Name: mag_to_phase
    Address: 0x711aeb679c    Name: hpf
    Address: 0x711aeb8388    Name: codec2_encode_2400
    Address: 0x711aebb4bc    Name: codec2_decode_1300
    Address: 0x711aec2ebc    Name: lsp_pred_vq_bits
    Address: 0x711aefc678    Name: lsp_cbdt
    Address: 0x711aec8eb4    Name: unpack
    Address: 0x711aeb0f18    Name: diff_de
    Address: 0x711aec8c98    Name: decode_WoE
    Address: 0x711aec304c    Name: encode_lspds_scalar
    Address: 0x711aebda2c    Name: codec2_rebuild_spare_bit
    Address: 0x711aeb52e0    Name: nlp_create
    Address: 0x711aeb8604    Name: codec2_encode_1600
    Address: 0x711aebf06c    Name: interp_Wo2
    Address: 0x711aeb0f78    Name: mean
    Address: 0x711aec42e8    Name: lspmelvq_quantise
    Address: 0x711aebfa88    Name: mbest_destroy
    Address: 0x711aec6494    Name: encode_log_Wo
    Address: 0x711aefc858    Name: newamp1_energy_cb
    Address: 0x711aec8e5c    Name: pack_natural_or_gray
    Address: 0x711aeb496c    Name: autocorrelate
    Address: 0x711aeb4d6c    Name: synthesis_filter
    Address: 0x711aebfb4c    Name: mbest_search
    Address: 0x711aec6cf4    Name: decode_lsps_scalar
    Address: 0x711aeb03c4    Name: calculate_Am_freqs_kHz
    Address: 0x711aebfa20    Name: mbest_create
    Address: 0x711aebd610    Name: codec2_energy_700c
    Address: 0x711aebfee8    Name: mel_sample_freqs_kHz
    Address: 0x711aeb9184    Name: codec2_encode_700
    Address: 0x711aec2974    Name: sample_phase
    Address: 0x711aefc810    Name: newamp1vq_cb
    Address: 0x711aec5188    Name: lspmelvq_decode
    Address: 0x711aec00d0    Name: resample_const_rate_f
    Address: 0x711aeb54ec    Name: nlp_destroy
    Address: 0x711aebda90    Name: codec2_fft_free
    Address: 0x711aeb9f2c    Name: codec2_decode_ber
    Address: 0x711aeb76d0    Name: synthesise
    Address: 0x711aebda88    Name: codec2_set_softdec
    Address: 0x711aebc7a8    Name: codec2_decode_700b
    Address: 0x711aebce94    Name: codec2_decode_700c
    Address: 0x711aeb3d44    Name: idct_config
    Address: 0x711aec29dc    Name: phase_synth_zero_order
    Address: 0x711aefc468    Name: lsp_cb
    Address: 0x711aebf79c    Name: lsp_to_lpc
    Address: 0x711aeb7ab8    Name: codec2_rand
    Address: 0x711aeb4cf0    Name: inverse_filter
    Address: 0x711aeb14e4    Name: wideband_enc_dec
    Address: 0x711aec6434    Name: encode_Wo
    Address: 0x711aeb44fc    Name: idct2
    Address: 0x711aeb47c4    Name: hanning_window
    Address: 0x711aeb9d9c    Name: codec2_encode_700c
    Address: 0x711aec106c    Name: resample_rate_L
    Address: 0x711aec1ef0    Name: newamp1_indexes_to_rate_K_vec
    Address: 0x711aeb97c0    Name: codec2_encode_700b
    Address: 0x711aeb7f28    Name: codec2_bits_per_frame
    Address: 0x711aeb9f24    Name: codec2_decode
    Address: 0x711aebdebc    Name: kiss_fft_stride
    Address: 0x711aeb4228    Name: idct
    Address: 0x711aec9584    Name: nlp_fir
    Address: 0x711aec0ae4    Name: post_filter_newamp1
    Address: 0x711aec05e4    Name: rate_K_mbest_encode
    Address: 0x711aec391c    Name: lspjvm_quantise
    Address: 0x711aec2e74    Name: lspd_bits
    Address: 0x711aeb7ea4    Name: codec2_destroy
    Address: 0x711aeb7540    Name: make_synthesis_window
    Address: 0x711aeb04ac    Name: resample_const_rate_f_mel
    Address: 0x711aec78f4    Name: decode_lsps_vq
    Address: 0x711aec52e4    Name: check_lsp_order
    Address: 0x711aec7f58    Name: apply_lpc_correction
    Address: 0x711aebed34    Name: kiss_fftr
    Address: 0x711aeb552c    Name: nlp
    Address: 0x711aec8160    Name: quantise_WoE
    Address: 0x711aeb61fc    Name: c2const_create
    Address: 0x711aec6510    Name: decode_log_Wo
    Address: 0x711aeb62ac    Name: make_analysis_window
    Address: 0x711aeb6968    Name: two_stage_pitch_refinement
    Address: 0x711aec6fcc    Name: decode_mels_scalar
    Address: 0x711aec5e34    Name: aks_to_M2
    Address: 0x711aec2ed4    Name: quantise_init
    Address: 0x711aebe7a4    Name: kiss_fft
    Address: 0x711aebf104    Name: interp_energy2
    Address: 0x711aeb4784    Name: de_emp
    Address: 0x711aec3510    Name: compute_weights
    Address: 0x711aec37bc    Name: find_nearest_weighted
    Address: 0x711aec5358    Name: force_min_lsp_dist
    Address: 0x711aec6568    Name: speech_to_uq_lsps
    Address: 0x711aebda80    Name: codec2_set_natural_or_gray
    Address: 0x711aeb3ec0    Name: dct2
    Address: 0x711aeb4750    Name: pre_emp
    Address: 0x711aeb1124    Name: std_on_cols
    Address: 0x711aeb3d58    Name: dct_cfg_free
    Address: 0x711aebda04    Name: codec2_get_spare_bit_index
    Address: 0x711aeb3618    Name: experiment_rate_K_dct2
    Address: 0x711aec7abc    Name: bw_expand_lsps
    Address: 0x711aefd010    Name: bpf
    Address: 0x711aec2e5c    Name: lsp_bits
    Address: 0x711aec49c4    Name: lspmelvq_mbest_encode
    Address: 0x711aec7f90    Name: encode_energy
    Address: 0x711aeb5f30    Name: post_process_sub_multiples
    Address: 0x711aec8f1c    Name: unpack_natural_or_gray
    Address: 0x711aebf158    Name: interpolate_lsp_ver2
    Address: 0x711aec873c    Name: encode_WoE
    Address: 0x711aeb3d5c    Name: dct
    Address: 0x711aeb6f50    Name: est_voicing_mbe
    Address: 0x711aebbb74    Name: codec2_decode_1200
    Address: 0x711aec1b70    Name: newamp1_interpolate
    Address: 0x711aefc888    Name: lspmelvq_cb
    Address: 0x711aebf0f8    Name: interp_energy
    Address: 0x711aeb1044    Name: std
    Address: 0x711aec3684    Name: find_nearest
    Address: 0x711aeb7f4c    Name: codec2_samples_per_frame
    Address: 0x711aeb03bc    Name: codec2_encode_wb
    Address: 0x711aebeeec    Name: sample_log_amp
    Address: 0x711aebda98    Name: codec2_fftr_alloc
    Address: 0x711aec2144    Name: newamp1_indexes_to_model
    Address: 0x711aebfab0    Name: mbest_insert
    Address: 0x711aec53ac    Name: lpc_post_filter
    Address: 0x711aec7b8c    Name: bw_expand_lsps2
    Address: 0x711aefc7b0    Name: lsp_cbjvm
    Address: 0x711aeb3d30    Name: dct_config
    Address: 0x711aec342c    Name: decode_lspds_scalar
    Address: 0x711aebd9f0    Name: codec2_set_lpc_post_filter
    Address: 0x711aefc570    Name: lsp_cbd
    Address: 0x711aebd05c    Name: analyse_one_frame
    Address: 0x711aec18f8    Name: newamp1_model_to_indexes
    Address: 0x711aeb49d0    Name: levinson_durbin
    Address: 0x711aeba8ac    Name: codec2_decode_1600
    Address: 0x711aeb6c48    Name: estimate_amplitudes
    Address: 0x711aec8e10    Name: pack
    Address: 0x711aebda94    Name: codec2_fft_alloc
    Address: 0x711aebfdd4    Name: interp_para
    Address: 0x711aebee2c    Name: kiss_fftri
    Address: 0x711aeb7f70    Name: codec2_encode
    Address: 0x711aeba4bc    Name: codec2_decode_2400
    Address: 0x711aeb8c38    Name: codec2_encode_1300
    Address: 0x711aeb1014    Name: array_col_to_row
    Address: 0x711aebe844    Name: kiss_fft_cleanup
    Address: 0x711aebe848    Name: kiss_fft_next_fast_size

Base: 0x71283c3000    Name: libfrida-gadget.so
    Address: 0x0    Name: LIBFRIDA_GADGET_1.0
